(dp0
V14 N Peoria
p1
(lp2
F41.8823332
aF-87.65004239999999
asV2535 N Milwaukee
p3
(lp4
F41.9275444
aF-87.7044901
asV4823 W. 63rd St.
p5
(lp6
F41.778199
aF-87.7432496
asV2417 W Warren
p7
(lp8
F41.8818861
aF-87.6871659
asV4054 W Peterson
p9
(lp10
F41.9903676
aF-87.7308534
asV5621 W. Irving Park Rd.
p11
(lp12
F41.952955
aF-87.7679606
asV125 N Cicero
p13
(lp14
F41.8827456
aF-87.7448575
asV4526 N Milwaukee
p15
(lp16
F41.9630644
aF-87.756856
asV3506 W. Chicago Ave. 
p17
(lp18
F41.8956858
aF-87.71432779999999
asV5675 N Elston Ave, Ste 1
p19
(lp20
F41.98480929999999
aF-87.76699769999999
asV8940-44 S Stony Island
p21
(lp22
F41.7320349
aF-87.58581769999999
asV747-749 E 92nd
p23
(lp24
F40.649615
aF-73.913516
asV6111 S. Sayre 
p25
(lp26
F41.780819
aF-87.795592
asV3500 N. Milwaukee Ave.
p27
(lp28
F41.944048
aF-87.732469
asV4317 S. Cottage Grove Ave.
p29
(lp30
F41.8162442
aF-87.6063207
asV950 W Washington
p31
(lp32
F30.545177
aF-83.8781008
asV833 W Randolph St
p33
(lp34
F41.884111
aF-87.648924
asV5001-17 W. Belmont Ave.
p35
(lp36
F41.938512
aF-87.75195099999999
asV2948-50 W Devon
p37
(lp38
F41.9976682
aF-87.7040967
asV4914 W Irving Park Rd
p39
(lp40
F41.9536783
aF-87.75045879999999
asV4656 N Clifton
p41
(lp42
F41.9668108
aF-87.65885999999999
asV4836 N. Sheridan Rd.
p43
(lp44
F41.970236
aF-87.655248
asV315 W. 119th St.
p45
(lp46
F41.6777606
aF-87.6305445
asV4830-34 N Sheridan
p47
(lp48
F41.9700694
aF-87.6550973
asV2535 N. Kedzie Blvd. #1
p49
(lp50
F41.9276133
aF-87.7067127
asV4860 N. Clark St. 
p51
(lp52
F41.970702
aF-87.6680186
asV2055 W. Walnut St.
p53
(lp54
F41.8855666
aF-87.6789644
asV3046 W Armitage
p55
(lp56
F41.9176036
aF-87.7043595
asV4534 W North
p57
(lp58
F41.910097
aF-87.740224
asV239-243 W 119th
p59
(lp60
F41.6778567
aF-87.6291353
asV516 E 43rd
p61
(lp62
F39.3412215
aF-76.6086275
asV3809 N. Cicero Ave.
p63
(lp64
F41.9501205
aF-87.746884
asV1214 E 95th
p65
(lp66
F40.641256
aF-73.901264
asV2569 N Milwaukee
p67
(lp68
F41.9280335
aF-87.7055097
asV641 E. Pershing Rd. 
p69
(lp70
F41.8236561
aF-87.61103539999999
asV4250 N Milwaukee
p71
(lp72
F41.9582595
aF-87.7527268
asV4444-6 N. Milwaukee Ave.
p73
(lp74
F41.9617242
aF-87.75596740000002
asV11431 S Michigan
p75
(lp76
F41.6860898
aF-87.6204775
asV1100-1112 W Granville/6200 N Winthrop
p77
(lp78
F29.1820714
aF-80.9902077
asV 2714 E 79th St.
p79
(lp80
F38.983705
aF-94.55550799999999
asV5251 W Belmont
p81
(lp82
F41.9384598
aF-87.7586907
asV4535 W Fullerton
p83
(lp84
F41.9235166
aF-87.74079019999999
asV8948 S Commercial
p85
(lp86
F26.1936832
aF-80.27010659999999
asV3209 & 3211 W. 111th St. 
p87
(lp88
F44.0082043
aF-96.10425099999999
asV4801 N Broadway
p89
(lp90
F41.9691759
aF-87.65933989999999
asV4701 W. Cortland St.
p91
(lp92
F41.914674
aF-87.743298
asV1658 E. 87th St.
p93
(lp94
F41.7371434
aF-87.58299129999999
asV2255 S. Wabash Ave. 
p95
(lp96
F41.8513664
aF-87.625154
asV600 W. 35th St.
p97
(lp98
F41.831076
aF-87.641413
asV4619 N Broadway
p99
(lp100
F41.9659933
aF-87.6574974
asV2101 W. 74th Street 
p101
(lp102
F41.7590297
aF-87.6767577
asV3546 W Lawrence
p103
(lp104
F41.9685535
aF-87.71775780000002
asV6601 S. Pulaski Rd. 
p105
(lp106
F41.773061
aF-87.72226839999999
asV940 W Chicago
p107
(lp108
F41.8965774
aF-87.651513
asV11114-16 S Kedzie
p109
(lp110
F41.880436
aF-87.706417
asV3544-46 W Lawrence
p111
(lp112
F41.9685328
aF-87.7176207
asV5419 W Patterson
p113
(lp114
F34.9708503
aF-78.9474457
asV4668 N Broadway
p115
(lp116
F41.96706040000001
aF-87.65883989999999
asV3310 S Halsted
p117
(lp118
F41.834445
aF-87.6464589
asV4201 W Lawrence
p119
(lp120
F41.9680161
aF-87.7331531
asV5707 N. Clark St.
p121
(lp122
F41.9856598
aF-87.66896469999999
asV4750 N Sheridan
p123
(lp124
F41.9687697
aF-87.6553088
asV1420 W Hubbard
p125
(lp126
F41.8902399
aF-87.6629664
asV2557-69 N Milwaukee
p127
(lp128
F43.065623
aF-87.99891
asV1904 W 47th
p129
(lp130
F36.0952253
aF-96.0140788
asV3028-30 N. Milwaukee Ave.
p131
(lp132
F41.93607799999999
aF-87.719426
asV1700 E 87th
p133
(lp134
F41.7362872
aF-87.58254520000001
asV1517 E 53rd
p135
(lp136
F41.7993767
aF-87.58847469999999
asV2824 W Taylor St
p137
(lp138
F41.8694525
aF-87.69706049999999
asV1059 W Argyle
p139
(lp140
F41.9730893
aF-87.65733809999999
asV1112 N. Homan Ave.
p141
(lp142
F41.9012566
aF-87.7121331
asV1900 W Carroll
p143
(lp144
F41.8879761
aF-87.6749267
asV2323 N Pulaski Rd
p145
(lp146
F41.923437
aF-87.726367
asV3175 W. Madison St.
p147
(lp148
F41.8808233
aF-87.7058374
asV4414 N Clark
p149
(lp150
F41.9621492
aF-87.6663203
asV5941-43 W Irving Park Rd
p151
(lp152
F41.9528436
aF-87.77606209999999
asV3019 W 111th
p153
(lp154
F41.69138419999999
aF-87.69690779999999
asV2323 W Fulton
p155
(lp156
F41.886383
aF-87.6848481
asV814 W. 120th St.
p157
(lp158
F41.6763921
aF-87.6430006
asV2472 W Foster Ave. Suite 104
p159
(lp160
F41.9761658
aF-87.6919426
asV5946 W. Chicago Ave.
p161
(lp162
F41.8949007
aF-87.7742055
asV6846 W. 60th Place
p163
(lp164
F41.7827736
aF-87.7932316
asV4545 S Ashland
p165
(lp166
F41.8108751
aF-87.664611
asV604 S Pulaski
p167
(lp168
F41.8732489
aF-87.7256433
asV1032 N Fulton Market # 201
p169
(lp170
F41.88696849999999
aF-87.653599
asV1664 North Ada 
p171
(lp172
F41.912501
aF-87.6623437
asV2938 E. 91st St.
p173
(lp174
F41.7303574
aF-87.5523506
asV2758 W North
p175
(lp176
F41.9105459
aF-87.69672299999999
asV5424 S Pulaski
p177
(lp178
F41.7942674
aF-87.7233943
asV5653 N Clark
p179
(lp180
F41.9848563
aF-87.6687571
asV2341 N Milwaukee
p181
(lp182
F41.9239215
aF-87.6985736
asV1155 W Fulton Market
p183
(lp184
F41.8864381
aF-87.6562392
asV4500 N Elston
p185
(lp186
F41.9624385
aF-87.73221749999999
asV4100 W. Victoria St.
p187
(lp188
F34.1111306
aF-117.3519041
asV818-22 W. Randolph St.
p189
(lp190
F41.8846506
aF-87.6483428
asV5159 W Fullerton
p191
(lp192
F41.9238721
aF-87.75596700000001
asV860 E. 63rd St.
p193
(lp194
F41.7806872
aF-87.6034699
asV7511 S Cottage Gr
p195
(lp196
F41.758146
aF-87.6050089
asV5900 N Broadway
p197
(lp198
F41.9892177
aF-87.6605332
asV6158 S Pulaski
p199
(lp200
F41.7805932
aF-87.72316839999999
asV1375 W Lake
p201
(lp202
F41.8852404
aF-87.6617254
asV4619 W Armitage
p203
(lp204
F41.91671780000001
aF-87.7424552
asV4543 W Addison
p205
(lp206
F41.9460309
aF-87.7414895
asV4030 S Cottage Grove
p207
(lp208
F41.8206699
aF-87.60701739999999
asV901 W Lake
p209
(lp210
F41.8853665
aF-87.65019889999999
asV2733 N Pulaski
p211
(lp212
F41.931029
aF-87.72659999999999
asV3941 S. Indiana Ave
p213
(lp214
F41.8222295
aF-87.62124089999999
asV5945 W Belmont
p215
(lp216
F41.93827450000001
aF-87.7755509
asV4310 W. Lawrence Ave.
p217
(lp218
F41.9685582
aF-87.73601970000001
asV 6401 N. Artesian 
p219
(lp220
F41.9980433
aF-87.69085720000001
asV1916 W Irving Park
p221
(lp222
F41.9543912
aF-87.67702779999999
asV5047 N Clark
p223
(lp224
F41.9738191
aF-87.66787190000001
asV2540 W. Division St.
p225
(lp226
F41.9032052
aF-87.6911707
asV4521 N Ravenswood
p227
(lp228
F41.9640654
aF-87.6733332
asV3009 W Fullerton
p229
(lp230
F41.9245544
aF-87.7029386
asV6610 S. Pulaski Rd.
p231
(lp232
F41.7728089
aF-87.7228671
asV4236-40 S Cottage Grove
p233
(lp234
F41.817476
aF-87.60710499999999
asV347 N Loomis
p235
(lp236
F41.88812619999999
aF-87.662195
asV4950-2 S. Cicero Ave.
p237
(lp238
F41.8024533
aF-87.7433921
asV2535 W. North Ave.
p239
(lp240
F41.909982
aF-87.69107729999999
asV4704 N. Damen Ave.
p241
(lp242
F41.9670958
aF-87.6793531
asV11612 S Western
p243
(lp244
F41.68229789999999
aF-87.68123179999999
asV6320 N. Broadway St. 
p245
(lp246
F41.997027
aF-87.6609129
asV6324 S Pulaski
p247
(lp248
F41.7778904
aF-87.72304559999999
asV4600 W. 72nd Street 
p249
(lp250
F38.9993373
aF-94.6384676
asV2120 S. Jefferson St.
p251
(lp252
F41.853322
aF-87.64255969999999
asV4307 N Central
p253
(lp254
F27.986697
aF-82.4549827
asV5635 W Belmont
p255
(lp256
F41.9382198
aF-87.768108
asV900-08 S California
p257
(lp258
F37.442709
aF-122.130932
asV2535-39 W Devon
p259
(lp260
F41.9975397
aF-87.6937105
asV9206 S Cottage Gr
p261
(lp262
F41.727249
aF-87.6049542
asV3147 N Central
p263
(lp264
F35.7960228
aF-91.66872049999999
asV3251 W. Fullerton Ave.
p265
(lp266
F41.92449510000001
aF-87.7095855
asV6226 N Broadway
p267
(lp268
F41.995413
aF-87.660827
asV6116 N. Lincoln Ave.
p269
(lp270
F41.9930207
aF-87.7122691
asV4918 W Irving Park
p271
(lp272
F41.9536699
aF-87.75067849999999
asV4026 N. Lincoln Ave. 
p273
(lp274
F41.9548898
aF-87.67967560000001
asV4500, 4504, 4508 S. Ashland Ave.
p275
(lp276
F41.8119839
aF-87.6653269
asV4041 N. Milwaukee Ave, 4th FL
p277
(lp278
F41.9544858
aF-87.7485593
asV4226 N Milwaukee
p279
(lp280
F41.9576874
aF-87.7522501
asV3800 W Lawrence
p281
(lp282
F41.9685116
aF-87.7233244
asV4038 N. Milwaukee Ave.
p283
(lp284
F41.9540156
aF-87.74885809999999
asV3594 N Milwaukee
p285
(lp286
F41.9459895
aF-87.7355604
asV1240 N. Wells St.
p287
(lp288
F41.9050571
aF-87.63486859999999
asV8247-51 S Cottage Grove
p289
(lp290
F41.744414
aF-87.604632
asV162 N Sangamon
p291
(lp292
F41.8849207
aF-87.6513034
asV5825 W. Corcoran Pl.
p293
(lp294
F41.8868387
aF-87.771114
asV2210 S Halsted
p295
(lp296
F41.8522223
aF-87.6466787
asV5814 N Lincoln
p297
(lp298
F41.9869352
aF-87.702135
asV832 W Fulton Market
p299
(lp300
F41.8869508
aF-87.64906710000001
asV6120-24 N Pulaski
p301
(lp302
F41.8815146
aF-87.7258978
asV355 N Lavergne
p303
(lp304
F41.88734360000001
aF-87.7502904
asV2200 W Lawrence
p305
(lp306
F41.9689592
aF-87.6842628
asV7401 S Pulaski
p307
(lp308
F41.7588665
aF-87.72116919999999
asV6123 N Clark St
p309
(lp310
F41.9931737
aF-87.66977399999999
asV1820 W Wilson
p311
(lp312
F41.9653352
aF-87.675589
asV3233 W. Grand Ave.
p313
(lp314
F41.8983821
aF-87.7082173
asV5532 W. Belmont Ave.
p315
(lp316
F41.9388571
aF-87.7653958
asV1220 W Lake
p317
(lp318
F30.5793949
aF-97.4253121
asV3120 W 111th 
p319
(lp320
F41.6917698
aF-87.6993259
asV4410 W. 63rd St.
p321
(lp322
F41.77874449999999
aF-87.7330575
asV4100 W Victoria
p323
(lp324
F45.0655901
aF-93.1315649
asV3333 W. North Ave.
p325
(lp326
F41.9098488
aF-87.7107316
asV2919-23 N Cicero
p327
(lp328
F41.933976
aF-87.74627199999999
asV3263 W. Fullerton Ave.
p329
(lp330
F41.9243558
aF-87.7098949
asV6050 N. Keystone
p331
(lp332
F41.9917003
aF-87.7302953
asV5961 N. Clark St.
p333
(lp334
F41.9903004
aF-87.6695944
asV4714 Walton
p335
(lp336
F41.8980541
aF-87.7442665
asV3750-54 W 111th
p337
(lp338
F41.691608
aF-87.715125
asV1742-44 W. 99th St. 
p339
(lp340
F41.7146391
aF-87.62547420000001
asV6029 W. Irving Park Rd. 
p341
(lp342
F41.9528282
aF-87.777914
asV5330 N. Elston Ave. 
p343
(lp344
F41.9779323
aF-87.75662919999999
asV2901 W Armitage
p345
(lp346
F41.9171558
aF-87.6996319
asV4149 W. Lawrence Ave.
p347
(lp348
F41.967955
aF-87.7324969
asV2200 N Milwaukee
p349
(lp350
F41.92068210000001
aF-87.6941483
asV8949 S Commercial
p351
(lp352
F26.1942889
aF-80.2702522
asV2132 S Michigan
p353
(lp354
F41.8532058
aF-87.6241333
asV2323 N Milwaukee
p355
(lp356
F41.9236775
aF-87.6980775
asV3340 W. Newport Ave.
p357
(lp358
F41.94379929999999
aF-87.7116917
asV3217 S Morgan
p359
(lp360
F41.8358713
aF-87.6508166
asV5048 S Indiana
p361
(lp362
F41.80240269999999
aF-87.6213111
asV2608 W Devon
p363
(lp364
F41.9978421
aF-87.69507209999999
asV6843 W 60th PL
p365
(lp366
F41.7822077
aF-87.7926394
asV2100 N Major
p367
(lp368
F41.918373
aF-87.7685489
asV2544 E 95th St
p369
(lp370
F41.7232494
aF-87.563152
asV3755 N Sacramento
p371
(lp372
F41.95009830000001
aF-87.70277180000001
asV6454-8 S. Cottage Grove Ave.
p373
(lp374
F43.8661616
aF-85.85154109999999
asV3920 W Roosevelt
p375
(lp376
F41.8661926
aF-87.7236432
asV1801 W. Berteau 
p377
(lp378
F41.9576043
aF-87.67467909999999
asV1129-33 W. Argyle St.
p379
(lp380
F41.973023
aF-87.6589812
asV3009-19 W. Lawrence Ave.
p381
(lp382
F41.9682004
aF-87.7040981
asV842 W Lake
p383
(lp384
F41.885894
aF-87.6490795
asV810 S Tripp
p385
(lp386
F41.8703787
aF-87.73176699999999
asV2614 W Devon
p387
(lp388
F41.997906
aF-87.69543
asV1839 N. Long Ave. 
p389
(lp390
F41.9143602
aF-87.7604021
asV4257 N Milwaukee
p391
(lp392
F41.9584619
aF-87.7523516
asV1328 W Lake
p393
(lp394
F41.8857845
aF-87.6600763
asV4839 N. Western Ave. 
p395
(lp396
F41.9697122
aF-87.6885618
asV3641 S. Morgan St.
p397
(lp398
F41.8276908
aF-87.6506836
asV1442 W. Willow St.
p399
(lp400
F41.9144395
aF-87.66381919999999
asV3910 N Lincoln
p401
(lp402
F41.9526303
aF-87.6779772
asV1514-16 W Lake
p403
(lp404
F43.30991830000001
aF-73.8279671
asV3656 W 111th St
p405
(lp406
F33.93468610000001
aF-118.3366257
asV822 E. 79th St.
p407
(lp408
F33.967197
aF-118.259932
asV6550 S Cottage Grove
p409
(lp410
F41.7753338
aF-87.6060735
asV5364 W. Gale St.
p411
(lp412
F41.9707477
aF-87.7629929
asV424 N Oakley Blvd
p413
(lp414
F41.8894119
aF-87.68456599999999
asV4848 W. Irving Park Rd.
p415
(lp416
F41.95368149999999
aF-87.74919539999999
asV4201 W Victoria
p417
(lp418
F34.0065276
aF-118.3361024
asV3810 S Halsted
p419
(lp420
F41.8250284
aF-87.64637019999999
asV1350 W Randolph
p421
(lp422
F41.8844722
aF-87.66085489999999
asV2323 W. Madison St.
p423
(lp424
F41.8808598
aF-87.6848679
asV5786 S. Archer Ave.
p425
(lp426
F41.7966186
aF-87.7579966
asV1040-50 W 40th
p427
(lp428
F39.7259282
aF-107.0500954
asV3267 S Halsted 
p429
(lp430
F41.8345451
aF-87.6458427
asV3616 N. Cicero Ave.
p431
(lp432
F41.9466908
aF-87.74728370000001
asV1501 N Magnolia 
p433
(lp434
F41.9094118
aF-87.6586768
asV3055 W Armitage
p435
(lp436
F41.9171872
aF-87.70462619999999
asV9928 S. Western Ave. 
p437
(lp438
F41.7127964
aF-87.6821219
asV1224 N. Wells St
p439
(lp440
F41.9046318
aF-87.6347553
asV400 N Ashland
p441
(lp442
F33.4224124
aF-111.8159202
asV114 N Aberdeen
p443
(lp444
F41.8834763
aF-87.6547056
asV3835 W Lawrence
p445
(lp446
F41.9681097
aF-87.7245647
asV3850 W Chicago
p447
(lp448
F41.8956069
aF-87.723209
asV1400 W. 46th St.
p449
(lp450
F41.8107477
aF-87.6606973
asV1600 S. Kostner 
p451
(lp452
F41.8578068
aF-87.73521400000001
asV2435-37 W Devon
p453
(lp454
F41.9974839
aF-87.69137520000001
asV3722 W Chicago
p455
(lp456
F41.895716
aF-87.719725
asV4401-25 W. Kinize St.
p457
(lp458
F41.8885741
aF-87.6853907
asV3915 W Fullerton Ave
p459
(lp460
F41.924208
aF-87.724913
asV5438 N. Broadway
p461
(lp462
F41.9811037
aF-87.6603921
asV4020-4 N. Lincoln Ave.
p463
(lp464
F41.95503799999999
aF-87.679052
asV4229 N Honore
p465
(lp466
F41.9590192
aF-87.67469679999999
asV4230 N. Normandy Ave.
p467
(lp468
F41.9575025
aF-87.7941838
asV2459 W Division
p469
(lp470
F41.9026989
aF-87.68927149999999
asV345 N Aberdeen
p471
(lp472
F41.8881427
aF-87.6540071
asV5449 W. Division St.
p473
(lp474
F41.9019928
aF-87.7628549
asV1511 W 38th/St
p475
(lp476
F41.8248457
aF-87.6636068
asV7442 S Cottage Grove
p477
(lp478
F41.7591006
aF-87.6056177
asV4530 N. Ravenswood Ave.
p479
(lp480
F41.9643087
aF-87.67494219999999
asV4140 W. Peterson Ave
p481
(lp482
F41.9903072
aF-87.7328938
asV4064 N. Lincoln Ave.
p483
(lp484
F41.9558074
aF-87.6801921
asV2054 W Devon
p485
(lp486
F41.9980648
aF-87.6822876
asV4956-58 N Milwaukee
p487
(lp488
F43.1077794
aF-87.9850167
asV4426 N. Ravenswood
p489
(lp490
F41.9625061
aF-87.6747101
asV11119-23 S Kedzie
p491
(lp492
F41.880297
aF-87.7056999
asV6025 W. Irving Park Rd.
p493
(lp494
F41.9528298
aF-87.77774409999999
asV4501 N Ravenswood
p495
(lp496
F41.9635261
aF-87.6736031
asV10409 S. Ewing Ave.
p497
(lp498
F41.70607700000001
aF-87.53491199999999
asV220 N Washtenaw
p499
(lp500
F41.8850973
aF-87.6942928
asV455 W. North Ave.
p501
(lp502
F41.9107857
aF-87.64078579999999
asV1823 W Irving Park
p503
(lp504
F41.9540251
aF-87.6752605
asV4530 N Ravenswood
p505
(lp506
F41.9643087
aF-87.67494219999999
asV3848 W Lawrence
p507
(lp508
F41.9685646
aF-87.72511779999999
asV5644 N. Clark St.
p509
(lp510
F41.9848048
aF-87.66922249999999
asV3401 N. Central Ave.
p511
(lp512
F41.9425381
aF-87.7663573
asV10961 S Kedzie
p513
(lp514
F41.6934208
aF-87.700608
asV3312 W Lawrence
p515
(lp516
F41.96864230000001
aF-87.7115805
asV5000-5008 N Sheridan Rd
p517
(lp518
F41.9735862
aF-87.6553036
asV3652 W Lawrence
p519
(lp520
F41.9685167
aF-87.7202566
asV4900-40 W. Grand Ave.
p521
(lp522
F41.5413269
aF-93.7711552
asV1034 S. Kostner Ave.
p523
(lp524
F41.8685031
aF-87.7350445
asV328 N Albany
p525
(lp526
F41.887245
aF-87.704162
asV634-640 E 79th
p527
(lp528
F41.7513808
aF-87.60853619999999
asV855 W Erie 
p529
(lp530
F41.8930208
aF-87.6491492
asV3554-58 W Lawrence
p531
(lp532
F38.9007934
aF-86.39485080000001
asV6336-40 N Clark
p533
(lp534
F39.9240521
aF-83.69042329999999
asV2817 W Touhy
p535
(lp536
F42.0118221
aF-87.7003393
asV4024 N. Milwaukee Ave.
p537
(lp538
F41.953861
aF-87.748477
asV850 W. Eastwood
p539
(lp540
F41.96662680000001
aF-87.6516406
asV2459 W Montrose
p541
(lp542
F41.9610785
aF-87.690974
asV1300 N Western Ave
p543
(lp544
F41.9049597
aF-87.68737589999999
asV5535-9 W. Montrose Ave.
p545
(lp546
F41.9603153
aF-87.7661984
asV4606 N. Western Ave.
p547
(lp548
F41.9651268
aF-87.68918529999999
asV1727 W Grand
p549
(lp550
F41.890709
aF-87.67065199999999
asV2944 W Devon
p551
(lp552
F41.9976873
aF-87.7039547
asV6810 N. Sheridan Rd.
p553
(lp554
F42.0058727
aF-87.66132669999999
asV1922 W Irving Park
p555
(lp556
F41.9543735
aF-87.6773915
asV309 N Justine
p557
(lp558
F41.887028
aF-87.66515199999999
asV222 N Laflin
p559
(lp560
F41.886363
aF-87.66465
asV1523-31 W. Lawrence Ave.
p561
(lp562
F41.9686145
aF-87.66845149999999
asV4201-03 W North 
p563
(lp564
F41.909535
aF-87.731629
asV1736-56 N. Springfield Ave.
p565
(lp566
F41.9127987
aF-87.7242907
asV4401 W Roosevelt Rd
p567
(lp568
F43.48672490000001
aF-86.3885178
asV1031-33 N Cicero
p569
(lp570
F41.8999405
aF-87.7448149
asV4030-34 N. Milwaukee
p571
(lp572
F43.0906051
aF-87.9553219
asV5450 W Belmont
p573
(lp574
F41.9388732
aF-87.7636254
asV526 E 43rd 
p575
(lp576
F41.8168655
aF-87.61294699999999
asV1358 N Western
p577
(lp578
F41.9065433
aF-87.68742639999999
asV4533 N. Clark St.
p579
(lp580
F41.9644838
aF-87.6662115
asV1529 W. Armitage Ave. 
p581
(lp582
F41.9179062
aF-87.6666135
asV5251 W. Belmont Ave. 
p583
(lp584
F41.9384598
aF-87.7586907
asV5616 W Montrose
p585
(lp586
F41.96063609999999
aF-87.76804419999999
asV3404 W Lake
p587
(lp588
F41.8848999
aF-87.7115541
asV3822 W 111th
p589
(lp590
F41.691486
aF-87.7163716
asV3111 W. 111th St. 
p591
(lp592
F41.6913389
aF-87.6988384
asV2649 W Division
p593
(lp594
F41.9027299
aF-87.6938802
asV1015 W. Pershing Rd. 
p595
(lp596
F41.822906
aF-87.6517325
asV4825 N Kedzie
p597
(lp598
F41.9696273
aF-87.70818000000001
asV1035 W Lake
p599
(lp600
F41.8853276
aF-87.6535814
asV4252 N Milwaukee
p601
(lp602
F41.9583156
aF-87.7527769
asV223 N Justine
p603
(lp604
F41.8860794
aF-87.6651722
asV844 W Montrose
p605
(lp606
F41.9620755
aF-87.6518734
asV4241-5 N. Western Ave.
p607
(lp608
F41.958923
aF-87.68822899999999
asV4444 W. Chicago Ave. 
p609
(lp610
F41.8954584
aF-87.7377108
asV2456 W Division
p611
(lp612
F41.9032991
aF-87.68923509999999
asV1358 W. Cermak Rd.
p613
(lp614
F41.85268660000001
aF-87.6607681
asV5607-9 N. Clark St.
p615
(lp616
F41.9838029
aF-87.6685378
asV3880 N. Milwaukee Ave.
p617
(lp618
F41.9513218
aF-87.7443679
asV2301-17 N. Knox Ave.
p619
(lp620
F41.9227462
aF-87.7421394
asV10540 S Western
p621
(lp622
F41.70158989999999
aF-87.681784
asV1926 W Irving Park
p623
(lp624
F41.9544248
aF-87.6775808
asV433 W Diversey
p625
(lp626
F41.93255509999999
aF-87.6407565
asV1151 W. 40th St. 
p627
(lp628
F41.8205432
aF-87.65504609999999
asV4041 N Milwaukee
p629
(lp630
F41.9544858
aF-87.7485593
asV4211 W Madison
p631
(lp632
F41.8803884
aF-87.73107329999999
asV4925 N. Lincoln Ave.
p633
(lp634
F41.971689
aF-87.69017730000002
asV2559 W Lawrence
p635
(lp636
F41.9683523
aF-87.6936175
asV5544 W Belmont
p637
(lp638
F41.9387516
aF-87.76582169999999
asV5838 W Division
p639
(lp640
F41.9023294
aF-87.7721121
asV4716 N. Pulaski 
p641
(lp642
F41.96706100000001
aF-87.7283167
asV5507 W Belmont
p643
(lp644
F41.9384158
aF-87.7645007
asV3240 W Lawrence
p645
(lp646
F41.9686792
aF-87.7101345
asV4305-07 N Milwaukee
p647
(lp648
F41.959058
aF-87.7527391
asV4918-20 W. Irving Park Rd.
p649
(lp650
F41.985553
aF-88.081138
asV3424 W. 111th St.
p651
(lp652
F41.6916659
aF-87.7066218
asV2755 - 2759 W. Harrison St. & 605 - 611 S. California Ave.
p653
(lp654
F41.873796
aF-87.69609059999999
asV3405 S. Halsted St.
p655
(lp656
F41.83234410000001
aF-87.64580269999999
asV3904 W Fulerton
p657
(lp658
F41.9247406
aF-87.7246073
asV3462 N. Pulaski Rd.
p659
(lp660
F41.9446072
aF-87.7274883
asV3129 W Armitage
p661
(lp662
F41.9171639
aF-87.70663979999999
asV2725 S Division
p663
(lp664
F35.8500811
aF-97.42539819999999
asV4823 W Irving Park Rd
p665
(lp666
F41.9531271
aF-87.74830320000001
asV4735 N Damen
p667
(lp668
F41.9680568
aF-87.67883130000001
asV3838 W Chicago
p669
(lp670
F41.8956758
aF-87.72276149999999
asV5641 W. 63rd St.
p671
(lp672
F41.7777846
aF-87.7633731
asV1501-3 W. Devon Ave.
p673
(lp674
F41.9978772
aF-87.6679686
asV4012 W North
p675
(lp676
F41.9100927
aF-87.72694729999999
asV4535 W. Addison St.
p677
(lp678
F41.9460007
aF-87.741209
asV344 N Ogden
p679
(lp680
F41.8878489
aF-87.6618798
asV214 W. 119th St.
p681
(lp682
F41.6781531
aF-87.62813039999999
asV4835 W Grand
p683
(lp684
F41.9142418
aF-87.7473931
asV4255 N Honore
p685
(lp686
F41.9594695
aF-87.67528589999999
asV5438 North Broadway
p687
(lp688
F41.9811037
aF-87.6603921
asV907 W Randolph
p689
(lp690
F41.8840519
aF-87.65015090000001
asV4200 W. Victoria St.
p691
(lp692
F41.9851856
aF-87.7337333
asV6122 N. Pulaski 
p693
(lp694
F41.9926913
aF-87.7292009
asV1901 N. Narragansett Ave.
p695
(lp696
F41.9150819
aF-87.78354310000002
asV3545 S. Morgan St.
p697
(lp698
F41.8292022
aF-87.65052659999999
asV1368 1/2 E 53rd
p699
(lp700
F41.799763
aF-87.59244149999999
asV5050 W Irving Park
p701
(lp702
F41.95355319999999
aF-87.754143
asV1435 W Fulton
p703
(lp704
F41.8863206
aF-87.6639352
asV4612 W. Superior St.
p705
(lp706
F41.8943503
aF-87.74171179999999
asV5245-51 W Grand
p707
(lp708
F41.917018
aF-87.757812
asV7000 N. Western Ave. 
p709
(lp710
F42.008849
aF-87.69050899999999
asV3009-17 W Lawrence
p711
(lp712
F38.9529499
aF-95.2468488
asV2925 W Devon
p713
(lp714
F41.9972976
aF-87.7030521
asV3255-3257 W 111th
p715
(lp716
F41.6913919
aF-87.70298609999999
asV2222 W Lake
p717
(lp718
F41.8852672
aF-87.68299010000001
asV6500 N. Western Ave.
p719
(lp720
F42.0004524
aF-87.6903281
asV3958 W 58th PL
p721
(lp722
F41.7869813
aF-87.72268799999999
asV4111 W. Armitage Ave.
p723
(lp724
F41.9169291
aF-87.72952509999999
asV6601 S Pulaski Rd
p725
(lp726
F41.773061
aF-87.72226839999999
asV8619-23 S Cottage Grove
p727
(lp728
F41.7378799
aF-87.60447599999999
asV4701-35 N Ravenswood
p729
(lp730
F41.9674665
aF-87.6736062
asV5216 W. Lawrence Ave.
p731
(lp732
F41.9682853
aF-87.7584699
asV3123-27 W. 111th St. 
p733
(lp734
F41.6913789
aF-87.6993993
asV2836-44 N. Elston Ave.
p735
(lp736
F41.9327981
aF-87.68920800000001
asV3435 W Lawrence
p737
(lp738
F41.9682307
aF-87.714773
asV5933-49 W Madison
p739
(lp740
F43.5583701
aF-96.7978522
asV5324 N Elston
p741
(lp742
F41.97778630000001
aF-87.7563091
asV3127 N Central
p743
(lp744
F35.7960098
aF-91.6686948
asV2550 W. Addison St.
p745
(lp746
F41.94741610000001
aF-87.692703
asV2900 W Armitage
p747
(lp748
F41.9176511
aF-87.69948339999999
asV3205 W. Armitage Ave.
p749
(lp750
F41.9172151
aF-87.7074177
asV218-220 E 51st
p751
(lp752
F33.8483528
aF-118.1911706
asV8701 S. Bennett
p753
(lp754
F41.7368137
aF-87.57774789999999
asV4935 W. Le Moyne St.
p755
(lp756
F41.9071673
aF-87.7498158
asV8923 S Cottage Grove
p757
(lp758
F41.731934
aF-87.604253
asV8334-8338 S Stony Island
p759
(lp760
F41.7430907
aF-87.5860355
asV942 W. Montrose Ave.
p761
(lp762
F41.9619134
aF-87.65413029999999
asV1238 N Kostner
p763
(lp764
F41.903942
aF-87.73698499999999
asV2519 W. 79th St.
p765
(lp766
F38.985833
aF-94.61495
asV4425 N milwaukee
p767
(lp768
F41.961228
aF-87.754857
asV4950 S. Kilbourn Ave. 
p769
(lp770
F41.8023516
aF-87.735838
asV9165 S. Harbor
p771
(lp772
F41.728703
aF-87.54150899999999
asV646-50 E 43rd
p773
(lp774
F40.6547754
aF-73.9377883
asV9921-31 S. Wood Street
p775
(lp776
F41.7131295
aF-87.66707679999999
asV10543-45 S. Ewing Ave.
p777
(lp778
F41.70334829999999
aF-87.5349923
asV1300 S. Kostner Ave.
p779
(lp780
F41.86366770000001
aF-87.73571310000001
asV2548 W Devon
p781
(lp782
F41.9978937
aF-87.6943515
asV5470 W Madison
p783
(lp784
F41.880525
aF-87.7628843
asV825 W Monroe
p785
(lp786
F41.8801605
aF-87.64812529999999
asV2725 W Division
p787
(lp788
F41.9026895
aF-87.69547759999999
asV415 North Milwaukee
p789
(lp790
F41.8896231
aF-87.6448552
asV4251-57 N Milwaukee
p791
(lp792
F43.0945177
aF-87.92626469999999
asV4386 W. Ogden, 4100 W. Ogden
p793
(lp794
F41.250846
aF-112.0779526
asV1939-59 W Fulton St
p795
(lp796
F41.8865326
aF-87.67589149999999
asV6033 W Belmont
p797
(lp798
F41.9382587
aF-87.77750320000001
asV1765 N. Elston 
p799
(lp800
F41.9149476
aF-87.66438180000002
asV1511 W 38th St
p801
(lp802
F41.8248457
aF-87.6636068
asV823 W. Randolph St.
p803
(lp804
F41.8840809
aF-87.6483647
asV2900 W. Carroll Ave.
p805
(lp806
F41.887946
aF-87.6990922
asV3040 W Lawrence
p807
(lp808
F41.968742
aF-87.7051232
asV1206 E 53rd
p809
(lp810
F40.0621502
aF-85.66467829999999
asV3243 W Lawrence
p811
(lp812
F41.9681795
aF-87.71024229999999
asV4300 W Ohio
p813
(lp814
F41.8918092
aF-87.73288869999999
asV6733 S. South Chicago Ave.
p815
(lp816
F41.772368
aF-87.614047
asV333 W. North Ave. #F
p817
(lp818
F41.9108163
aF-87.63822069999999
asV1021 W. Lawrence Ave
p819
(lp820
F41.9687882
aF-87.65572399999999
asV4353 N Western
p821
(lp822
F41.9610343
aF-87.68839899999999
asV3937 W. Madison St.
p823
(lp824
F41.8804488
aF-87.7242843
asV4662 N Lincoln
p825
(lp826
F41.96644329999999
aF-87.68745489999999
asV636 W Root
p827
(lp828
F41.8193253
aF-87.6425769
asV2105-09 S State
p829
(lp830
F41.8539813
aF-87.62675589999999
asV948 W Madison
p831
(lp832
F41.8819526
aF-87.65177589999999
asV1014 W. Monroe St.
p833
(lp834
F41.8806421
aF-87.6527101
asV1640-48 W 115th
p835
(lp836
F41.6850987
aF-87.66311019999999
asV2912 N Milwaukee
p837
(lp838
F41.9340119
aF-87.7159791
asV4661 N. Broadway 
p839
(lp840
F41.9669348
aF-87.65822620000002
asV5722 S Pulaski
p841
(lp842
F41.7888507
aF-87.723348
asV2542 E. 79th St.
p843
(lp844
F41.7519816
aF-87.5620378
asV10426 S. Western Ave.
p845
(lp846
F41.70386560000001
aF-87.6819484
asV617 S. Pulaski Rd
p847
(lp848
F41.8729382
aF-87.72508959999999
asV4437 N Broadway
p849
(lp850
F41.9628076
aF-87.65552319999999
asV1800 W. Belle Plaine
p851
(lp852
F41.9562994
aF-87.67454719999999
asV3523 N Kenton
p853
(lp854
F41.945132
aF-87.7417679
asV3119-3123 W 111th
p855
(lp856
F41.6913789
aF-87.6993993
asV3835 W. Cermak Rd.
p857
(lp858
F41.851406
aF-87.72123619999999
asV1127 W. Granville Ave.
p859
(lp860
F41.9943698
aF-87.65957569999999
asV1393 W Lake
p861
(lp862
F41.8852206
aF-87.66229589999999
asV2100 N. Major Ave.
p863
(lp864
F41.918373
aF-87.7685489
asV4459 W. Divison St.
p865
(lp866
F41.9022176
aF-87.73824139999999
asV1834-36 W 47th
p867
(lp868
F40.7571975
aF-73.9804082
asV4556 W Grand
p869
(lp870
F41.9120728
aF-87.7406288
asV3716 W Chicago
p871
(lp872
F41.8956026
aF-87.71952309999999
asV2537-43 N. Kedzie Blvd.
p873
(lp874
F41.92763739999999
aF-87.706975
asV4445 N Elston
p875
(lp876
F41.9617769
aF-87.73090490000001
asV3026 - 30 W Carroll
p877
(lp878
F42.0643116
aF-94.8414638
asV2707 W Lawrence
p879
(lp880
F41.9684185
aF-87.6966255
asV501 W North
p881
(lp882
F41.9107813
aF-87.64123239999999
asV4707 N Broadway
p883
(lp884
F41.9676796
aF-87.65860190000001
asV2100 S. Kilbourn Ave.
p885
(lp886
F41.8530547
aF-87.73777109999999
asV3249 W Harrison
p887
(lp888
F41.873404
aF-87.70799199999999
asV2747 W Taylor
p889
(lp890
F41.8690536
aF-87.69537869999999
asV2042-2056 W Walnut
p891
(lp892
F41.8860797
aF-87.6789809
asV4209 W North
p893
(lp894
F41.909583
aF-87.7318445
asV11725-27 S Michigan
p895
(lp896
F42.84617490000001
aF-84.5429257
asV1300 S Kostner
p897
(lp898
F41.86366770000001
aF-87.73571310000001
asV4428 N Ravenswood
p899
(lp900
F41.9624069
aF-87.6745395
asV4101 W Armitage
p901
(lp902
F41.9169352
aF-87.72913779999999
asV3101 West 111th Street
p903
(lp904
F41.69139000000001
aF-87.69859609999999
asV4630 S. Cottage Grove Ave.
p905
(lp906
F41.81056239999999
aF-87.6070767
asV5332 N Elston
p907
(lp908
F41.978012
aF-87.75679720000001
asV8706 S Commercial
p909
(lp910
F26.1936805
aF-80.26821269999999
asV9900 S Western Ave
p911
(lp912
F35.36978089999999
aF-97.52926280000001
asV3139 W Foster
p913
(lp914
F41.9755134
aF-87.70779399999999
asV1017 W Washington 3E
p915
(lp916
F39.5435378
aF-83.430114
asV1036 N Kilbourn
p917
(lp918
F41.8999844
aF-87.73889539999999
asV4106 W. Armitage Ave.
p919
(lp920
F41.9173842
aF-87.7294247
asV5517 N. Broadway
p921
(lp922
F41.982338
aF-87.6595679
asV3333 W 111th
p923
(lp924
F41.6912472
aF-87.704244
asV1324 W. Devon Ave.
p925
(lp926
F41.998388
aF-87.664045
asV4147 N. Ravenswood Ave., Ste. 100
p927
(lp928
F41.9574626
aF-87.6734161
asV5015 N Western Ave
p929
(lp930
F41.9727345
aF-87.6887457
asV946 W 79th
p931
(lp932
F39.8978843
aF-86.17621439999999
asV2210 S. Halsted St.
p933
(lp934
F41.8522223
aF-87.6466787
asV3732 W. 63rd St.
p935
(lp936
F41.7790159
aF-87.7167542
asV5711 W Irving Park Rd
p937
(lp938
F41.9528677
aF-87.7700144
asV3029 E 92nd
p939
(lp940
F41.727988
aF-87.549968
asV325 N. Ashland Ave.
p941
(lp942
F41.88714359999999
aF-87.66622339999999
asV5604 W Belmont
p943
(lp944
F41.9388667
aF-87.7668423
asV4465 N Milwaukee
p945
(lp946
F41.96226739999999
aF-87.75566889999999
asV1932-1958 W Lake
p947
(lp948
F41.8851276
aF-87.6764977
asV5352 N. Broadway
p949
(lp950
F41.9797057
aF-87.6603688
asV4619 N. Broadway
p951
(lp952
F41.9659933
aF-87.6574974
asV19 N Cicero
p953
(lp954
F41.8811757
aF-87.74530469999999
asV3227 W Lawrence
p955
(lp956
F41.96831
aF-87.70952380000001
asV9229 S. Baltimore Ave.
p957
(lp958
F41.7274436
aF-87.5481997
asV4429 N. Broadway
p959
(lp960
F41.9625755
aF-87.6553713
asV2606 W Divison
p961
(lp962
F41.9031709
aF-87.6923348
asV5538 W Belmont
p963
(lp964
F41.9386796
aF-87.7657486
asV8236 S. Cottage Grove Ave.
p965
(lp966
F41.7446783
aF-87.60541339999999
asV8822 S. Dobson
p967
(lp968
F41.7331413
aF-87.5994259
asV4644 N Lincoln
p969
(lp970
F41.9660778
aF-87.6872614
asV11316-20 S Michigan
p971
(lp972
F43.59575539999999
aF-85.0729621
asV6379 N. Paulina Ave. 
p973
(lp974
F41.9979327
aF-87.67163719999999
asV3217 S. Morgan St.
p975
(lp976
F41.8358713
aF-87.6508166
asV4102 W. Armitage
p977
(lp978
F41.917296
aF-87.72922969999999
asV1200 W. Cermak Rd. 2nd Floor/Ste. 210
p979
(lp980
F41.8534908
aF-87.65664009999999
asV4051 W. 51st St.
p981
(lp982
F41.8001172
aF-87.7261438
asV3433 W Diversey
p983
(lp984
F41.931706
aF-87.713697
asV1751-59 W Grand
p985
(lp986
F41.8914008
aF-87.6303817
asV4445 N Milwaukee
p987
(lp988
F41.96187
aF-87.7551189
asV4054 N. Lincoln Ave.
p989
(lp990
F41.955536
aF-87.68009529999999
asV4423 N Elston
p991
(lp992
F41.9615994
aF-87.73012890000001
asV1017-31 W. Wilson Ave.
p993
(lp994
F41.9652313
aF-87.6556339
asV2635 N Kildare
p995
(lp996
F41.929227
aF-87.733756
asV4925 N Lincoln
p997
(lp998
F41.971689
aF-87.69017730000002
asV5419 N Lincoln
p999
(lp1000
F42.0342859
aF-87.7627936
asV4900-8 N. Lincoln Ave.
p1001
(lp1002
F41.9709834
aF-87.6902965
asV4221 N. Normandy Ave.
p1003
(lp1004
F41.9571069
aF-87.79243919999999
asV1939-59 W Fulton
p1005
(lp1006
F36.2654185
aF-91.786187
asV500 E. 67th St.
p1007
(lp1008
F33.9785817
aF-118.2663665
asV4862-4 N. Clark St.
p1009
(lp1010
F41.9707349
aF-87.66805509999999
asV3940-44 W Chicago Ave
p1011
(lp1012
F41.8956561
aF-87.7253411
asV2733 W Division
p1013
(lp1014
F41.9027022
aF-87.6957559
asV4422 N. Clark St.
p1015
(lp1016
F41.9623646
aF-87.6663282
asV4318 W Carrol
p1017
(lp1018
F33.5720605
aF-112.1527109
asV8619-23 S. Cottage Grove Ave.
p1019
(lp1020
F41.7378799
aF-87.60447599999999
asV2230 S Michigan
p1021
(lp1022
F41.8518718
aF-87.6246334
asV5422-24 N. Broadway
p1023
(lp1024
F40.9348547
aF-73.8978882
asV2728 W Armitage
p1025
(lp1026
F41.917673
aF-87.6959947
asV2554 W. Lawrence
p1027
(lp1028
F41.9688308
aF-87.6934367
asV6034 N. Broadway St.
p1029
(lp1030
F41.991941
aF-87.66069379999999
asV1421 N. Elston Ave.
p1031
(lp1032
F41.9078851
aF-87.6599774
asV4151 N Western
p1033
(lp1034
F41.9573399
aF-87.6881929
asV4920 W Irving Park
p1035
(lp1036
F41.9536722
aF-87.7508239
asV2541 W Division
p1037
(lp1038
F41.9026889
aF-87.6911343
asV1657 E. 87th Street 
p1039
(lp1040
F41.7367529
aF-87.5829457
asV4021-23 W. Madison
p1041
(lp1042
F43.0150623
aF-90.1410618
asV3857 W Washington
p1043
(lp1044
F41.8816756
aF-87.72319379999999
asV4305 S. Halsted St.
p1045
(lp1046
F41.8159199
aF-87.6453901
asV5508 N Western
p1047
(lp1048
F41.9816979
aF-87.6897699
asV4021 W North
p1049
(lp1050
F41.90958
aF-87.72736499999999
asV2878 N Milwaukee
p1051
(lp1052
F41.93352549999999
aF-87.71515
asV3912 W Lawrence
p1053
(lp1054
F41.9683621
aF-87.726148
asV1756 W Lake
p1055
(lp1056
F42.6474045
aF-77.0816794
asV3452-6 N. Pulaski Rd.
p1057
(lp1058
F41.9443139
aF-87.7276304
asV5048 - 50 S. Indiana Ave.
p1059
(lp1060
F41.80240269999999
aF-87.6213111
asV1301 W Lake
p1061
(lp1062
F30.5786162
aF-97.4252539
asV228 W Washtenaw
p1063
(lp1064
F42.7312628
aF-84.5543666
asV10511 S Ewing Ave
p1065
(lp1066
F41.7041533
aF-87.53504889999999
asV2128 W Fulton
p1067
(lp1068
F41.886992
aF-87.680289
asV3717 W. Armitage Ave. 
p1069
(lp1070
F41.9170507
aF-87.7199421
asV5337 W Madison
p1071
(lp1072
F41.880069
aF-87.7590809
asV4442A N. Milwaukee Ave.
p1073
(lp1074
F41.9617201
aF-87.75584909999999
asV118-30 E. 51st St.
p1075
(lp1076
F40.7579396
aF-73.974811
asV5000 N Kedzie
p1077
(lp1078
F41.9723109
aF-87.70880299999999
asV3105 W. 111th St.
p1079
(lp1080
F41.691409
aF-87.69871529999999
asV2745 W. Armitage Ave.
p1081
(lp1082
F41.9172881
aF-87.6965133
asV625 E. Pershing Rd. 
p1083
(lp1084
F41.8236931
aF-87.6116042
asV2925 W Carroll
p1085
(lp1086
F41.8873024
aF-87.6999968
asV5711 W. Irving Park Rd. 
p1087
(lp1088
F41.9528677
aF-87.7700144
asV2601 W Devon
p1089
(lp1090
F41.9974692
aF-87.6949904
asV5237 W. Belmont Ave.
p1091
(lp1092
F41.9384971
aF-87.7581369
asV6450 W. Cortland St.
p1093
(lp1094
F41.9153597
aF-87.78701889999999
asV6928 S Pulaksi
p1095
(lp1096
F41.766945
aF-87.72293610000001
asV11107 S Longwood
p1097
(lp1098
F41.6916844
aF-87.6717362
asV1900 S. Western Ave.
p1099
(lp1100
F41.8555061
aF-87.6860402
asV841 W. Randolph St. 
p1101
(lp1102
F41.8839669
aF-87.64895299999999
asV455 N Oakley Blvd
p1103
(lp1104
F41.8901668
aF-87.6839273
asV3960 W. Madison St.
p1105
(lp1106
F41.8809878
aF-87.72537539999999
asV3502 W 111th 
p1107
(lp1108
F33.9344644
aF-118.3329508
asV4050 N Milwaukee
p1109
(lp1110
F41.9541148
aF-87.74934400000001
asV5616 W. Montrose Ave.
p1111
(lp1112
F41.96063609999999
aF-87.76804419999999
asV1835 N. Major Ave.
p1113
(lp1114
F41.913803
aF-87.7668667
asV1812 W. Montrose Ave
p1115
(lp1116
F41.9616775
aF-87.67501039999999
asV3514 W. 111th St. 
p1117
(lp1118
F41.6915856
aF-87.708902
asV9300 S. Commercial Ave.
p1119
(lp1120
F41.726549
aF-87.5513974
asV5247-49 W Belmont
p1121
(lp1122
F41.938475
aF-87.7585072
asV6157 N. Clark St.
p1123
(lp1124
F41.9942643
aF-87.669707
asV3906 N. Cicero Ave.
p1125
(lp1126
F41.9517888
aF-87.7475649
asV1000 W Fulton Market
p1127
(lp1128
F41.887099
aF-87.6526547
asV8702 S Commercial
p1129
(lp1130
F26.1936806
aF-80.26821149999999
asV3620 W. Chicago Ave. 
p1131
(lp1132
F41.8956416
aF-87.71717559999999
asV3050 N. Western Ave.
p1133
(lp1134
F41.93722409999999
aF-87.68832379999999
asV5654 N. Elston Ave.
p1135
(lp1136
F41.98390819999999
aF-87.76672839999999
asV2165 N. Milwaukee Ave.
p1137
(lp1138
F41.9207171
aF-87.6933665
asV4141 W Grand Ave.
p1139
(lp1140
F41.9076062
aF-87.730677
asV1143 W Lake
p1141
(lp1142
F41.88526520000001
aF-87.6561188
asV11101 S. Kedzie Ave.
p1143
(lp1144
F41.69146509999999
aF-87.7006548
asV2545 W. Arthington St.
p1145
(lp1146
F41.8699432
aF-87.6907354
asV4410 N Ravenswood
p1147
(lp1148
F41.9619556
aF-87.6748677
asV4653 N. Milwaukee Ave.
p1149
(lp1150
F41.96540239999999
aF-87.7583379
asV3656 W 111th
p1151
(lp1152
F33.93468610000001
aF-118.3366257
asV6616 S. Pulaski 
p1153
(lp1154
F41.772644
aF-87.7229011
asV112 N Green St
p1155
(lp1156
F37.8383651
aF-87.5886582
asV1917 W Walnut
p1157
(lp1158
F27.9602508
aF-82.47956
asV3446-50 N. Pulaski Rd. 
p1159
(lp1160
F41.9440973
aF-87.72762929999999
asV5051 W. Belmont Ave. 
p1161
(lp1162
F41.9385573
aF-87.7537839
asV5815 W. Irving Park Rd. 
p1163
(lp1164
F41.9527997
aF-87.7726187
asV6318 N Clark
p1165
(lp1166
F41.99704240000001
aF-87.67068850000001
asV2333 N Milwaukee
p1167
(lp1168
F41.9237546
aF-87.6984018
asV350 N Ogden
p1169
(lp1170
F41.8881556
aF-87.6616459
asV3443 W Lawrence
p1171
(lp1172
F41.9682495
aF-87.7150243
asV5638 S. Central Ave.
p1173
(lp1174
F41.78980070000001
aF-87.7625375
asV5434 W Higgins
p1175
(lp1176
F41.9688352
aF-87.76203249999999
asV1363 E 53rd
p1177
(lp1178
F33.9950546
aF-118.2507221
asV4516 S Ashland
p1179
(lp1180
F41.8117018
aF-87.665421
asV5545 N Clark
p1181
(lp1182
F41.982957
aF-87.66825899999999
asV4619-23 N. Western Ave.
p1183
(lp1184
F41.8818975
aF-87.6859909
asV2905 N. Milwaukee Ave.
p1185
(lp1186
F41.9341996
aF-87.7153845
asV4616 W Fullerton
p1187
(lp1188
F41.9246072
aF-87.7424504
asV9222-44 S Stony Island
p1189
(lp1190
F41.7271215
aF-87.5856555
asV6427 W Irving Park Rd
p1191
(lp1192
F41.9526247
aF-87.7876867
asV2018 W Adams
p1193
(lp1194
F41.8789188
aF-87.67740959999999
asV2822 W Devon
p1195
(lp1196
F41.9977098
aF-87.700575
asV1635 W Walnut
p1197
(lp1198
F41.8859749
aF-87.66837819999999
asV5731 N Lincoln
p1199
(lp1200
F41.9860818
aF-87.6995792
asV5951 N. Broadway
p1201
(lp1202
F41.9905369
aF-87.6599864
asV2123 W Irving Park
p1203
(lp1204
F41.9539106
aF-87.6821284
asV3028-30 N Milwaukee
p1205
(lp1206
F43.074092
aF-87.9507651
asV2033 W Walnut
p1207
(lp1208
F41.8855791
aF-87.6778065
asV3946 N Cicero Av
p1209
(lp1210
F41.9529383
aF-87.7476461
asV4651 N Kedzie
p1211
(lp1212
F41.9661827
aF-87.708058
asV4750 W. Madison 
p1213
(lp1214
F41.88067220000001
aF-87.7448692
asV711 W Grand
p1215
(lp1216
F41.8910041
aF-87.6465173
asV4055 W. Peterson Ave., rear suite
p1217
(lp1218
F41.98979689999999
aF-87.7316116
asV3523 W Lawrence
p1219
(lp1220
F41.9680825
aF-87.7168197
asV1202-06 N Wells
p1221
(lp1222
F41.9040303
aF-87.63476519999999
asV4427 N Clark
p1223
(lp1224
F41.96269059999999
aF-87.66584429999999
asV4221 W. North Ave. 
p1225
(lp1226
F43.0604847
aF-87.96613669999999
asV5638 W Chicago
p1227
(lp1228
F41.8950845
aF-87.76698139999999
asV1047 W Madison
p1229
(lp1230
F41.8814453
aF-87.6540382
asV5637-41 N Lincoln
p1231
(lp1232
F40.8668485
aF-96.7790333
asV4653 N Milwaukee
p1233
(lp1234
F41.96540239999999
aF-87.7583379
asV3939 N Lincoln
p1235
(lp1236
F41.9534955
aF-87.67789780000001
asV2033 W 95th
p1237
(lp1238
F41.4761235
aF-81.7483027
asV6814 N. Sheridan Rd. 
p1239
(lp1240
F42.005983
aF-87.6613697
asV2746 - 48 W Chicago
p1241
(lp1242
F41.806463
aF-87.6932214
asV6500 W. Irving Park Rd. #1
p1243
(lp1244
F41.95347659999999
aF-87.7892833
asV5430 N Broadway
p1245
(lp1246
F41.980932
aF-87.66039599999999
asV6027 W. Irving Park Rd.
p1247
(lp1248
F41.9527522
aF-87.7778204
asV8815 S. Dobson Ave.
p1249
(lp1250
F41.7334008
aF-87.5986935
asV1925 W Irving Park Rd
p1251
(lp1252
F41.95391250000001
aF-87.6772872
asV5514 N. Kedzie Ave.
p1253
(lp1254
F41.9817824
aF-87.7091494
asV4804 N. Broadway
p1255
(lp1256
F41.96926089999999
aF-87.6598722
asV3855 N. Cicero Ave.
p1257
(lp1258
F41.9513772
aF-87.7468105
asV4630 W. 53rd St. & 5275 S. Archer Ave.
p1259
(lp1260
F45.0528825
aF-93.4890272
asV5945 W Irving Park Rd
p1261
(lp1262
F41.952762
aF-87.7761663
asV5764 S. Archer Ave. 
p1263
(lp1264
F41.7968038
aF-87.7570057
asV4048 W Schubert
p1265
(lp1266
F41.9302041
aF-87.7289771
asV5524-28 N Lincoln
p1267
(lp1268
F34.21005530000001
aF-118.3353417
asV940 W. Chicago Ave.
p1269
(lp1270
F41.8965774
aF-87.651513
asV4550 N Elston
p1271
(lp1272
F41.963337
aF-87.733682
asV3946 W 16th
p1273
(lp1274
F41.8589984
aF-87.72451079999999
asV4935 W LeMoyne
p1275
(lp1276
F41.9071673
aF-87.7498158
asV10951 S Michigan
p1277
(lp1278
F41.6947436
aF-87.6204262
asV350 N. Laflin 
p1279
(lp1280
F41.8880406
aF-87.66491649999999
asV3133 N Central
p1281
(lp1282
F33.4847459
aF-112.0737076
asV6135 S Nottingham 
p1283
(lp1284
F41.7796612
aF-87.7979762
asV1800 W Lake
p1285
(lp1286
F41.8854163
aF-87.6720141
asV217 N Western
p1287
(lp1288
F34.0752461
aF-118.3095261
asV5350 N. Broadway
p1289
(lp1290
F41.9796321
aF-87.6603456
asV5544 W Armstrong
p1291
(lp1292
F41.98481659999999
aF-87.766249
asV1509 E 53rd
p1293
(lp1294
F33.9950496
aF-118.2473274
asV3125 S Kolin
p1295
(lp1296
F41.8356789
aF-87.7324539
asV1400 W. Wabansia Ave.
p1297
(lp1298
F41.91369359999999
aF-87.66303719999999
asV4455 N Elston
p1299
(lp1300
F41.9622242
aF-87.7311062
asV1647 W Fulton
p1301
(lp1302
F41.88667
aF-87.66887589999999
asV4147 N. Ravenswood Ave., Ste. 100 & 201
p1303
(lp1304
F41.957456
aF-87.67347699999999
asV5401-5407 W Belmont
p1305
(lp1306
F41.938376
aF-87.762
asV4400 N Clark
p1307
(lp1308
F41.9618222
aF-87.66618679999999
asV5668 N Clark
p1309
(lp1310
F41.9854632
aF-87.6694622
asV3339 S. Halsted St. 
p1311
(lp1312
F41.8332584
aF-87.645826
asV1244 N Wells
p1313
(lp1314
F41.9051696
aF-87.6348658
asV2834-36 W Roosevelt Rd
p1315
(lp1316
F41.8603952
aF-88.0192986
asV3267 S. Halsted St.
p1317
(lp1318
F41.8345451
aF-87.6458427
asV2210 N California
p1319
(lp1320
F41.9220999
aF-87.6975082
asV636 W. Root St.
p1321
(lp1322
F41.8193253
aF-87.6425769
asV5965 N. Clark St.
p1323
(lp1324
F41.990431
aF-87.66959609999999
asV6501 N Clark
p1325
(lp1326
F42.0000449
aF-87.6707289
asV3701 W Lawrence
p1327
(lp1328
F41.968066
aF-87.72092400000001
asV2740 W. Armitage Ave
p1329
(lp1330
F41.9177237
aF-87.6964465
asV6942-44 N Western
p1331
(lp1332
F37.7710953
aF-81.9907771
asV5216 W Lawrence
p1333
(lp1334
F41.9682853
aF-87.7584699
asV4459 W Lake
p1335
(lp1336
F41.8858539
aF-87.7374256
asV5701-7 W. Irving Park Rd.
p1337
(lp1338
F41.9529858
aF-87.7696261
asV11813 S Michigan
p1339
(lp1340
F41.6794022
aF-87.6202189
asV5009 N. Sheridan Rd.
p1341
(lp1342
F41.9736848
aF-87.6545233
asV6750 S Pulaski Rd
p1343
(lp1344
F41.7701026
aF-87.7229021
asV7001 W. 60th St.
p1345
(lp1346
F41.78272949999999
aF-87.7977229
asV10241 S. Commercial Ave.
p1347
(lp1348
F41.708909
aF-87.552233
asV4311 N. Normandy Ave.
p1349
(lp1350
F41.9584232
aF-87.7924762
asV4014 N Western
p1351
(lp1352
F41.9546097
aF-87.6888043
asV5480 S Kenwood
p1353
(lp1354
F41.7957122
aF-87.59386119999999
asV4123 W Peterson 
p1355
(lp1356
F41.9897153
aF-87.7326007
asV4600 W. 72nd St. 
p1357
(lp1358
F38.9993373
aF-94.6384676
asV5738 S Pulaski
p1359
(lp1360
F41.7883939
aF-87.72334640000001
asV4501 S. Knox Ave.
p1361
(lp1362
F41.8108644
aF-87.7390236
asV3400 W. 111th Street
p1363
(lp1364
F41.6916781
aF-87.7059341
asV2950 W Chicago
p1365
(lp1366
F42.3756236
aF-83.11490839999999
asV4518 S Cottage
p1367
(lp1368
F41.81251
aF-87.60712
asV700-04 W 119th
p1369
(lp1370
F41.6780161
aF-87.6396895
asV3630 S. Iron St.
p1371
(lp1372
F41.827821
aF-87.6597031
asV5811 W Chicago
p1373
(lp1374
F41.8945861
aF-87.7706674
asV8621 S. Stony Island Ave.
p1375
(lp1376
F41.73808289999999
aF-87.58497299999999
asV4259 S. King Dr.
p1377
(lp1378
F41.8167975
aF-87.6162586
asV6036 S. Central Ave. 
p1379
(lp1380
F41.78240419999999
aF-87.76223039999999
asV4717 S. Ashland Ave.
p1381
(lp1382
F41.8079848
aF-87.6645563
asV1819 W. 99th St. 
p1383
(lp1384
F41.71365249999999
aF-87.6681115
asV5959 W. Irving Park Rd.
p1385
(lp1386
F41.9528311
aF-87.77659969999999
asV2010 W Fulton
p1387
(lp1388
F41.8870125
aF-87.6774908
asV2815 W Armitage
p1389
(lp1390
F41.91733
aF-87.698054
asV3930 N. Cicero Ave.
p1391
(lp1392
F41.952584
aF-87.7474529
asV3815 W Cortland
p1393
(lp1394
F41.9151909
aF-87.72245950000001
asV3533 N. Western Ave., Unit B
p1395
(lp1396
F41.9459251
aF-87.6877265
asV1600 E 93rd 
p1397
(lp1398
F41.7261605
aF-87.58477590000001
asV2155 S. Carpenter St.
p1399
(lp1400
F41.8527363
aF-87.652664
asV5845 N Clark
p1401
(lp1402
F41.9884272
aF-87.6692987
asV4545 W Armitage
p1403
(lp1404
F41.9167336
aF-87.7405636
asV1800 W. Cuyler #1E
p1405
(lp1406
F41.9554047
aF-87.6745224
asV4250 N. Pulaski 
p1407
(lp1408
F41.9589043
aF-87.72801319999999
asV2311 N. Pulaski Rd.
p1409
(lp1410
F41.923195
aF-87.726341
asV1146 S. California 
p1411
(lp1412
F41.8668979
aF-87.696113
asV6901 N Western
p1413
(lp1414
F42.0064517
aF-87.6897293
asV948 W. Madison St.
p1415
(lp1416
F41.8819526
aF-87.65177589999999
asV4661 N Kedzie
p1417
(lp1418
F41.9664811
aF-87.70807289999999
asV6101 N. Clark St. 
p1419
(lp1420
F41.9928248
aF-87.6697528
asV1445 W. Devon Ave.
p1421
(lp1422
F41.9980111
aF-87.6672165
asV4321 W. 32nd St.
p1423
(lp1424
F41.8349881
aF-87.73264739999999
asV3304-06 W. 111th St. 
p1425
(lp1426
F41.69166389999999
aF-87.70373870000002
asV4200 W Wrightwood
p1427
(lp1428
F41.9283243
aF-87.7325141
asV6853-55 W 60th PL
p1429
(lp1430
F41.782105
aF-87.79301600000001
asV5236 W Belmont
p1431
(lp1432
F41.9388503
aF-87.75820829999999
asV617 S. Pulaski Rd.
p1433
(lp1434
F41.8729382
aF-87.72508959999999
asV935 E. 79th Street 
p1435
(lp1436
F41.5298616
aF-81.6334078
asV6760 N Sheridan Rd
p1437
(lp1438
F42.0053712
aF-87.66128929999999
asV4108 W Division
p1439
(lp1440
F41.9028972
aF-87.7291773
asV4530 N Milwaukee
p1441
(lp1442
F41.9631623
aF-87.7569551
asV7604 S. Cottage Grove 
p1443
(lp1444
F41.7565061
aF-87.6055353
asV4242 W Bryn Mawr
p1445
(lp1446
F41.9832466
aF-87.7345849
asV4200 W Victoria
p1447
(lp1448
F41.9851856
aF-87.7337333
asV4760 N Lincoln
p1449
(lp1450
F41.9680505
aF-87.688395
asV4055 W. Armitage Ave.
p1451
(lp1452
F41.9169448
aF-87.7287317
asV1750 E 87th 
p1453
(lp1454
F41.7372486
aF-87.58082809999999
asV6116-20 N Broadway
p1455
(lp1456
F41.9928671
aF-87.6605328
asV1115 W Berwyn
p1457
(lp1458
F41.9779578
aF-87.658451
asV4112 W. Armitage Ave.
p1459
(lp1460
F41.9172906
aF-87.729587
asV2433 W Devon
p1461
(lp1462
F41.997449
aF-87.69129799999999
asV1685 N Elston
p1463
(lp1464
F41.9130111
aF-87.6634163
asV4535-61 W. Cortland St.
p1465
(lp1466
F41.914725
aF-87.74049199999999
asV1751 W. Grand Ave. 
p1467
(lp1468
F41.890677
aF-87.6716732
asV6600 W Armitage
p1469
(lp1470
F41.9162357
aF-87.7897358
asV6021 W. Irving Park Rd.
p1471
(lp1472
F41.9528298
aF-87.7776401
asV2723 W. Touhy
p1473
(lp1474
F42.01186209999999
aF-87.69828369999999
asV5805 S. Archer
p1475
(lp1476
F41.785824
aF-87.8106605
asV2904 W Armitage
p1477
(lp1478
F41.9176502
aF-87.69966099999999
asV2553 W Devon
p1479
(lp1480
F41.9974266
aF-87.6943039
asV7400 S. Racine Ave.
p1481
(lp1482
F41.7594471
aF-87.6544522
asV1106 W. Bryn Mawr Ave.
p1483
(lp1484
F41.98384069999999
aF-87.6584263
asV5801 N Tripp
p1485
(lp1486
F41.9860818
aF-87.73359010000001
asV4705 N Damen
p1487
(lp1488
F41.9670997
aF-87.6786937
asV259 N California
p1489
(lp1490
F41.886021
aF-87.695627
asV4220 N Milwaukee
p1491
(lp1492
F41.9575793
aF-87.7521428
asV5252 N. Broadway St., 2nd Floor
p1493
(lp1494
F41.977922
aF-87.66032539999999
asV3149 W Devon
p1495
(lp1496
F41.9972085
aF-87.70892239999999
asV3301-05 W 111th 
p1497
(lp1498
F41.6913645
aF-87.7034824
asV3057 N. Rockwell St.
p1499
(lp1500
F41.937459
aF-87.6924846
asV5711 W. Irving Park Rd.
p1501
(lp1502
F41.9528677
aF-87.7700144
asV2525 W. North Ave.
p1503
(lp1504
F41.909973
aF-87.690747
asV641 W. Grand Ave.
p1505
(lp1506
F41.891014
aF-87.644547
asV4744-46 W Rice
p1507
(lp1508
F41.896246
aF-87.745289
asV8334 - 8338 S. Stony Island Ave.
p1509
(lp1510
F41.7430907
aF-87.5860355
asV2601 W Armitage
p1511
(lp1512
F41.9172777
aF-87.6925132
asV2201 W. Fulton St./2226 W. Walnut St.
p1513
(lp1514
F41.8859891
aF-87.6826198
asV457 N Leavitt
p1515
(lp1516
F41.8901249
aF-87.6814437
asV6025 W. Irving Park Rd. 
p1517
(lp1518
F41.9528298
aF-87.77774409999999
asV4735 N Pulaski
p1519
(lp1520
F41.9674235
aF-87.7277095
asV4625-53 W. Chicago Ave. 
p1521
(lp1522
F41.894726
aF-87.7421169
asV4941-43 N Milwaukee
p1523
(lp1524
F43.119373
aF-87.9662683
asV4500 W. 31st St.
p1525
(lp1526
F41.8372037
aF-87.736668
asV2245 W Wellington
p1527
(lp1528
F41.9356322
aF-87.6848582
asV6015 N. Ridge Ave.
p1529
(lp1530
F41.991167
aF-87.67224399999999
asV3844 W Lawrence
p1531
(lp1532
F41.9684106
aF-87.7249276
asV3610 W. Irving Park Rd.
p1533
(lp1534
F41.9540249
aF-87.71835759999999
asV1104 W. Granville Ave.
p1535
(lp1536
F41.99471339999999
aF-87.6587205
asV3913-59 W Madison
p1537
(lp1538
F41.8806135
aF-87.72387859999999
asV321 - 353 N. Artesian
p1539
(lp1540
F41.88814199999999
aF-87.687316
asV5820 W Irving Park Rd
p1541
(lp1542
F41.953413
aF-87.772758
asV4240 S. Morgan St.
p1543
(lp1544
F41.81638909999999
aF-87.6511773
asV2253 W Devon
p1545
(lp1546
F41.9975935
aF-87.6870611
asV2756 W Fulton
p1547
(lp1548
F41.8867919
aF-87.69622869999999
asV6412 N. Rockwell St.  
p1549
(lp1550
F41.9980104
aF-87.6949719
asV3541-43 N Kenton
p1551
(lp1552
F41.94563429999999
aF-87.7417967
asV5504-5510 W Fullerton
p1553
(lp1554
F41.9242896
aF-87.76403359999999
asV4241 W. 63rd Street 
p1555
(lp1556
F41.778375
aF-87.7292769
asV400 N. Paulina St.
p1557
(lp1558
F41.8889929
aF-87.6698761
asV1742 W 47th
p1559
(lp1560
F41.80877710000001
aF-87.6691402
asV5060 N. Sheridan Rd.
p1561
(lp1562
F41.9750089
aF-87.6554766
asV2934 N Milwaukee Ave, Suite C
p1563
(lp1564
F41.9346302
aF-87.71693080000001
asV4256-66 N Milwaukee
p1565
(lp1566
F43.0946712
aF-87.99447669999999
asV3632-38 N Pulaski
p1567
(lp1568
F41.94752039999999
aF-87.7277349
asV4300 N. Western Ave.
p1569
(lp1570
F41.9596107
aF-87.6888891
asV2525 W Division
p1571
(lp1572
F41.9027202
aF-87.6904818
asV2940 N Cicero Ave
p1573
(lp1574
F41.9345291
aF-87.7470761
asV2423 S Oakley
p1575
(lp1576
F41.84773149999999
aF-87.682844
asV4230 N. Normandy 
p1577
(lp1578
F41.9575025
aF-87.7941838
asV2056 W Walnut
p1579
(lp1580
F41.8860797
aF-87.6789809
asV1023 W Jackson Blvd
p1581
(lp1582
F41.87757730000001
aF-87.65290499999999
asV2500 W Lake
p1583
(lp1584
F42.09584050000001
aF-87.8196287
asV4710 N. Ravenswood Ave.
p1585
(lp1586
F41.9674141
aF-87.67511689999999
asV3221-23 W North
p1587
(lp1588
F40.0596752
aF-76.41080889999999
asV4500 S. Michigan Ave.
p1589
(lp1590
F41.8128873
aF-87.62335000000002
asV5146 N Clark
p1591
(lp1592
F41.9757413
aF-87.66859869999999
asV1738 W 119th
p1593
(lp1594
F41.6783602
aF-87.66570039999999
asV5714 W. Division 
p1595
(lp1596
F41.902322
aF-87.7687459
asV4418 N Milwaukee
p1597
(lp1598
F41.9611369
aF-87.7552966
asV5022 N Clark
p1599
(lp1600
F41.9731688
aF-87.6683704
asV3142 S. Morgan
p1601
(lp1602
F41.8366684
aF-87.65135599999999
asV6056 N Broadway
p1603
(lp1604
F41.9925669
aF-87.6606532
asV3965 W. Madison St.
p1605
(lp1606
F41.8807407
aF-87.7247227
asV2102 S. Pulaski Rd.
p1607
(lp1608
F41.8532991
aF-87.7250368
asV2618-20 W. Division St.
p1609
(lp1610
F41.9041073
aF-87.6295756
asV1811 W. 47th St.
p1611
(lp1612
F41.808341
aF-87.6703436
asV6332 S. Central Ave.
p1613
(lp1614
F41.7770236
aF-87.7619581
asV525 W. North Ave.
p1615
(lp1616
F41.9107895
aF-87.64207499999999
asV4130 S. Morgan
p1617
(lp1618
F41.8192214
aF-87.65195899999999
asV4937 N. Damen 
p1619
(lp1620
F41.9717467
aF-87.67899799999999
asV3345 W. Chicago Ave.
p1621
(lp1622
F41.8952505
aF-87.7107595
asV2142-50 W. Carroll Ave.
p1623
(lp1624
F41.88790820000001
aF-87.6809589
asV312-342 N Western
p1625
(lp1626
F41.8879947
aF-87.6869778
asV501 E. 61st St.
p1627
(lp1628
F43.4961964
aF-96.7196946
asV1200 W. Cermak Rd. 2nd Floor
p1629
(lp1630
F41.8534908
aF-87.65664009999999
asV3111 N. Western Ave.
p1631
(lp1632
F41.9381019
aF-87.68763779999999
asV950 W Monroe
p1633
(lp1634
F41.880634
aF-87.65145
asV3806 W 63rd
p1635
(lp1636
F41.7789908
aF-87.7184546
asV5449 N. Broadway 
p1637
(lp1638
F41.98140000000001
aF-87.659544
asV4114 S. Peoria St.
p1639
(lp1640
F41.8195967
aF-87.6493371
asV945 E. 93rd St.
p1641
(lp1642
F41.724704
aF-87.60008900000001
asV3356 W Chicago
p1643
(lp1644
F42.374357
aF-83.1180131
asV5849-53 W. Irving Park Rd.
p1645
(lp1646
F41.9528357
aF-87.7738988
asV3227 W Harrison
p1647
(lp1648
F41.8734845
aF-87.70697129999999
asV1763 W 95th
p1649
(lp1650
F41.720854
aF-87.667137
asV11012 S Western
p1651
(lp1652
F41.6934658
aF-87.68160069999999
asV1539 W Rosemont
p1653
(lp1654
F41.996121
aF-87.669476
asV1923 W Irving Park
p1655
(lp1656
F41.9539525
aF-87.67720380000002
asV1926-8 W. Irving Park Rd.
p1657
(lp1658
F42.007951
aF-88.152988
asV6623 N Clark
p1659
(lp1660
F42.00241320000001
aF-87.6718793
asV3551 W 111th
p1661
(lp1662
F41.6912146
aF-87.7101058
asV8507 S Stoney Island
p1663
(lp1664
F41.7402767
aF-87.5849916
asV1400 W Wabansia
p1665
(lp1666
F41.91369359999999
aF-87.66303719999999
asV5232 W Irving Park
p1667
(lp1668
F41.9534884
aF-87.7585422
asV11622 S. Western Ave.
p1669
(lp1670
F41.6820194
aF-87.6812339
asV1428 W. 37th St.
p1671
(lp1672
F39.3319651
aF-76.6394085
asV730 W. Grand Ave. 
p1673
(lp1674
F41.8913628
aF-87.6473161
asV5938-40 N. Broadway 
p1675
(lp1676
F41.9902495
aF-87.6605816
asV4433 W Ohio
p1677
(lp1678
F41.8911851
aF-87.7372037
asV1540-42 N. Western Ave.
p1679
(lp1680
F41.90972319999999
aF-87.6875539
asV3701 W. Cermak Rd.
p1681
(lp1682
F41.8514023
aF-87.7175677
asV1920 W Irving Park
p1683
(lp1684
F41.9544291
aF-87.6772138
asV8053-57 S Stony Island
p1685
(lp1686
F41.748107
aF-87.58507999999999
asV512-14 E 47th St
p1687
(lp1688
F40.7561077
aF-73.97774559999999
asV4740 N Western
p1689
(lp1690
F41.9680013
aF-87.68906419999999
asV3321 S. Halsted St.
p1691
(lp1692
F41.8337487
aF-87.64589409999999
asV1928-30 S. Fairfield
p1693
(lp1694
F40.3954999
aF-86.86202469999999
asV3607 W Lawrence
p1695
(lp1696
F33.5646132
aF-112.1369023
asV6039 W. Irving Park Rd.
p1697
(lp1698
F41.9528129
aF-87.77826019999999
asV1658 W Carroll
p1699
(lp1700
F41.8880679
aF-87.66893499999999
asV4420-4 W. Armitage Ave.
p1701
(lp1702
F41.9171889
aF-87.73727430000001
asV2407 W. 111th St. 
p1703
(lp1704
F41.6915935
aF-87.6816759
asV1826 N Lorel
p1705
(lp1706
F41.9141009
aF-87.7598429
asV5715 W. Irving Park Rd. 
p1707
(lp1708
F41.9529309
aF-87.7702351
asV5719-5723 W Chicago
p1709
(lp1710
F41.894551
aF-87.7688529
asV4753 N. Broadway, Suite 918
p1711
(lp1712
F41.9687124
aF-87.6591775
asV2108 W Fulton
p1713
(lp1714
F41.8869857
aF-87.67978459999999
asV4519-25 S. King Dr.
p1715
(lp1716
F41.8123886
aF-87.6160568
asV4147 N Ravenswood
p1717
(lp1718
F41.9574626
aF-87.6734161
asV2355 W Washington
p1719
(lp1720
F41.882835
aF-87.68624679999999
asV1455 W Hubbard
p1721
(lp1722
F41.8896312
aF-87.6642772
asV5955 W. Irving Park Rd.
p1723
(lp1724
F41.9528478
aF-87.7764917
asV3925 W. Madison St.
p1725
(lp1726
F41.8804837
aF-87.72409189999999
asV43-51 E Cermak
p1727
(lp1728
F41.8526226
aF-87.62498049999999
asV4141 W Grand
p1729
(lp1730
F41.9076062
aF-87.730677
asV1932-4 E. 79th St.
p1731
(lp1732
F40.7765408
aF-73.9633186
asV4555 N Elston
p1733
(lp1734
F41.9639272
aF-87.7335796
asV3437-47 W Madison
p1735
(lp1736
F37.241798
aF-78.6822633
asV2101 W. 74th St. 
p1737
(lp1738
F41.7590297
aF-87.6767577
asV1747 W Carroll
p1739
(lp1740
F41.8875055
aF-87.67144979999999
asV4201-A W Lawrence
p1741
(lp1742
F41.9680161
aF-87.7331531
asV2620 W Fletcher St
p1743
(lp1744
F41.938787
aF-87.69378999999999
asV7030 W. 60th St. 
p1745
(lp1746
F41.7832816
aF-87.7978677
asV5613-5 W. Irving Park Rd.
p1747
(lp1748
F41.9529479
aF-87.767709
asV1138 S. California Ave.
p1749
(lp1750
F41.8672036
aF-87.69615890000001
asV3158 S Kolin
p1751
(lp1752
F41.8351738
aF-87.7331688
asV2500-2 W Devon Ave
p1753
(lp1754
F41.9977938
aF-87.6924519
asV3242 W Foster
p1755
(lp1756
F41.9759331
aF-87.71034999999999
asV3857 W Roosevelt
p1757
(lp1758
F41.8659225
aF-87.7223614
asV6212 N Lincoln
p1759
(lp1760
F41.99462159999999
aF-87.7148862
asV3409 W. Madison
p1761
(lp1762
F41.880721
aF-87.7115812
asV5000 W Roosevelt Rd
p1763
(lp1764
F41.8658262
aF-87.74953359999999
asV1638-50 N. Elston Ave.
p1765
(lp1766
F41.9117136
aF-87.6628923
asV2224 W Irving Park
p1767
(lp1768
F41.954377
aF-87.684665
asV4231 W Madison
p1769
(lp1770
F41.8803195
aF-87.7318458
asV400 N Leavitt
p1771
(lp1772
F41.8888581
aF-87.6821702
asV2128 W. Fulton St.
p1773
(lp1774
F41.886992
aF-87.680289
asV2542 W. Division, Inc.
p1775
(lp1776
F41.5082463
aF-87.4513293
asV4011 N Damen
p1777
(lp1778
F41.9545925
aF-87.67857149999999
asV3940 W. Madison St.
p1779
(lp1780
F41.8810236
aF-87.7247519
asV4255 & 4257 W Armitage
p1781
(lp1782
F41.9179485
aF-87.66726969999999
asV4723 S. Ashland Ave.
p1783
(lp1784
F41.8078522
aF-87.664547
asV1466 E. 53rd St.
p1785
(lp1786
F40.6227436
aF-73.924606
asV3944-3960 W. Lawrence & 4801-09 N. Pulaski
p1787
(lp1788
F41.9682428
aF-87.7280186
asV2542 W. Division St.
p1789
(lp1790
F41.9031831
aF-87.6912589
asV6242 N. Clark St.
p1791
(lp1792
F41.9953472
aF-87.67046859999999
asV4872 N. Milwaukee Ave. 
p1793
(lp1794
F41.9695277
aF-87.76259480000002
asV3336-44 N. Milwaukee Ave.
p1795
(lp1796
F41.9417325
aF-87.72862649999999
asV3223 S Kolin
p1797
(lp1798
F41.8338264
aF-87.73244509999999
asV1000 S Kostner
p1799
(lp1800
F41.8693111
aF-87.7358003
asV6045 N. Keystone Ave.
p1801
(lp1802
F41.9916415
aF-87.72969739999999
asV1143 W Rundell
p1803
(lp1804
F41.8810599
aF-87.6562186
asV5943-45 N Broadway
p1805
(lp1806
F41.9903687
aF-87.659992
asV4054 W Peterson Ave
p1807
(lp1808
F41.9903676
aF-87.7308534
asV3501 E 95th St
p1809
(lp1810
F41.7226355
aF-87.53871389999999
asV944 N. Spaulding Ave.
p1811
(lp1812
F41.8988342
aF-87.7092385
asV4200 W. Wrightwood Ave. 
p1813
(lp1814
F41.9283243
aF-87.7325141
asV8944 S. Commercial Ave.
p1815
(lp1816
F41.7324158
aF-87.55142479999999
asV800-8 W. Randolph St.
p1817
(lp1818
F39.9471292
aF-87.4707655
asV528 E. 43rd St.
p1819
(lp1820
F41.81688399999999
aF-87.61284839999999
asV501-7 E. 47th St.
p1821
(lp1822
F39.8405564
aF-86.1499168
asV6824 S. Pulaski Rd.
p1823
(lp1824
F41.76874129999999
aF-87.7227464
asV4131 N Western
p1825
(lp1826
F41.95679500000001
aF-87.6882373
asV4917 N Lincoln
p1827
(lp1828
F41.9713628
aF-87.6899713
asV3522 W. Potomac Ave.
p1829
(lp1830
F41.9048409
aF-87.7153608
asV645-49 W 119th St
p1831
(lp1832
F40.803419
aF-73.9465221
asV4528 W. Division St.
p1833
(lp1834
F41.9031419
aF-87.7396964
asV6021-6025 W Irving Park Rd
p1835
(lp1836
F41.9528298
aF-87.77774409999999
asV151 N. Cicero Ave.
p1837
(lp1838
F41.8835557
aF-87.74494109999999
asV4825 N. Kedzie Ave.
p1839
(lp1840
F41.9696273
aF-87.70818000000001
asV1850 W 47th
p1841
(lp1842
F41.8087344
aF-87.67183340000001
asV1800 W Fulton
p1843
(lp1844
F42.963933
aF-85.7122311
asV1439 - 1443 W. 79th St.
p1845
(lp1846
F41.7502393
aF-87.6602582
asV6252 N Lincoln
p1847
(lp1848
F41.9953078
aF-87.7159987
asV2200-2202 N. California
p1849
(lp1850
F39.750727
aF-104.984512
asV5033 N Kedzie
p1851
(lp1852
F41.9730071
aF-87.7082745
asV2450 W. Hubbard St.
p1853
(lp1854
F41.8897404
aF-87.6887814
asV210 N. Aberdeen St.
p1855
(lp1856
F41.885948
aF-87.65484900000001
asV1622 W Carroll
p1857
(lp1858
F41.888076
aF-87.668336
asV5931-39 W North
p1859
(lp1860
F35.5118573
aF-97.62013239999999
asV3900 W Palmer
p1861
(lp1862
F41.9211052
aF-87.7251019
asV4900 W. Bloomingdale Ave.
p1863
(lp1864
F41.913703
aF-87.74957959999999
asV3708 W Roosevelt
p1865
(lp1866
F43.0889859
aF-87.9599343
asV2824 W Armitage
p1867
(lp1868
F41.9176669
aF-87.6982676
asV1108-1110 W Argyle
p1869
(lp1870
F41.9734722
aF-87.6582395
asV6635 W. Irving Park Rd.
p1871
(lp1872
F41.9524665
aF-87.792856
asV2716 W. North Ave.
p1873
(lp1874
F41.9104907
aF-87.6953119
asV1009 W Lake
p1875
(lp1876
F41.8853453
aF-87.6526244
asV3318 W Foster
p1877
(lp1878
F41.9758655
aF-87.71195349999999
asV3424 W 111th
p1879
(lp1880
F33.934558
aF-118.332501
asV1400 W 46th
p1881
(lp1882
F40.0620964
aF-86.2414488
asV6031 W. Irving Park
p1883
(lp1884
F41.95274939999999
aF-87.778007
asV5262 S Kolmar
p1885
(lp1886
F41.7964296
aF-87.73710609999999
asV1029 W. Madison 
p1887
(lp1888
F41.8814637
aF-87.6533426
asV5524-26 N Lincoln
p1889
(lp1890
F42.0930105
aF-89.57833939999999
asV1900 W Carroll Ave.
p1891
(lp1892
F41.8879761
aF-87.6749267
asV10554 S. Michigan Ave.
p1893
(lp1894
F41.7020177
aF-87.6212135
asV3701 S Halsted
p1895
(lp1896
F41.8269866
aF-87.6457484
asV3535 W. Harrison St.
p1897
(lp1898
F41.8733277
aF-87.71415239999999
asV5500 N. Kedize Ave.
p1899
(lp1900
F41.9814637
aF-87.70907319999999
asV3838 W 111th
p1901
(lp1902
F41.691576
aF-87.717055
asV2746 N. Milwaukee Ave.
p1903
(lp1904
F41.9309636
aF-87.7110762
asV3400 W. 111th St.
p1905
(lp1906
F41.6916781
aF-87.7059341
asV3033 W 111th St
p1907
(lp1908
F41.6913473
aF-87.6974864
asV1041 W Madison
p1909
(lp1910
F41.8814226
aF-87.65369129999999
asV1658 E 87th
p1911
(lp1912
F41.7371434
aF-87.58299129999999
asV4756 N Milwaukee
p1913
(lp1914
F41.9668549
aF-87.7600944
asV4704 N Damen
p1915
(lp1916
F41.9670958
aF-87.6793531
asV3148 W. Cermak Rd.
p1917
(lp1918
F41.852005
aF-87.7047405
asV1730-36 E. 87th St. 
p1919
(lp1920
F41.7371553
aF-87.5815015
asV3305 W. Harrison St.
p1921
(lp1922
F41.8733881
aF-87.70896929999999
asV4606 N Western
p1923
(lp1924
F41.9651268
aF-87.68918529999999
asV2413 S. Oakley Ave.
p1925
(lp1926
F41.847997
aF-87.68283249999999
asV1032 W Fulton Market
p1927
(lp1928
F41.88696849999999
aF-87.653599
asV3026 E. 91st St. 
p1929
(lp1930
F41.730383
aF-87.550101
asV6300 S. Woodlawn Ave.
p1931
(lp1932
F41.78029799999999
aF-87.596499
asV4548 N Western
p1933
(lp1934
F41.96467800000001
aF-87.6890753
asV1848 W. 47th St.
p1935
(lp1936
F41.8086972
aF-87.6717434
asV3915 W. Devon Ave.
p1937
(lp1938
F41.9970061
aF-87.7271511
asV2938 E 91st 
p1939
(lp1940
F41.7303574
aF-87.5523506
asV2617 W Division
p1941
(lp1942
F41.9027049
aF-87.6926903
asV2521-25 W. 79th Street 
p1943
(lp1944
F25.8942194
aF-80.33211089999999
asV2307 W. Devon
p1945
(lp1946
F41.99756300000001
aF-87.6878145
asV3256 W Lawrence
p1947
(lp1948
F41.9686866
aF-87.71071429999999
asV3518-22 W. 111th St.
p1949
(lp1950
F41.6927826
aF-87.6240029
asV1420 N Western
p1951
(lp1952
F41.9073558
aF-87.6874861
asV407 W. North Ave.
p1953
(lp1954
F41.9108503
aF-87.6389626
asV1654 E 87th
p1955
(lp1956
F41.737212
aF-87.582987
asV2219 W Grand
p1957
(lp1958
F41.89049
aF-87.6827791
asV5654 N Elston
p1959
(lp1960
F41.98390819999999
aF-87.76672839999999
asV4817-29 W. Grand Ave.
p1961
(lp1962
F41.9138197
aF-87.74695799999999
asV4124 N Lincoln
p1963
(lp1964
F41.956589
aF-87.6807444
asV1366 W Lake
p1965
(lp1966
F41.8857086
aF-87.6614499
asV3111 N Cicero
p1967
(lp1968
F41.9372888
aF-87.7465196
asV4651 N Milwaukee
p1969
(lp1970
F41.9653789
aF-87.75823989999999
asV4401 N Ravenswood
p1971
(lp1972
F41.9617756
aF-87.6735336
asV5419 S. Halsted St.
p1973
(lp1974
F41.7954136
aF-87.64505860000001
asV10240 S Ewing Ave
p1975
(lp1976
F41.7089173
aF-87.5356554
asV3925 W. Chicago Ave.
p1977
(lp1978
F41.895114
aF-87.724673
asV3640 N. Central Ave
p1979
(lp1980
F41.946985
aF-87.7671289
asV3749 W Lawrence
p1981
(lp1982
F41.968134
aF-87.72254889999999
asV1640 E. 87th St.
p1983
(lp1984
F41.737204
aF-87.58359899999999
asV1206 E 53rd St
p1985
(lp1986
F40.0621502
aF-85.66467829999999
asV2011 S. Laflin St.
p1987
(lp1988
F41.854733
aF-87.663403
asV3837 N Western
p1989
(lp1990
F41.9515007
aF-87.68810189999999
asV1840 N. Central Ave.
p1991
(lp1992
F41.9140745
aF-87.76669989999999
asV1300 S Springfield
p1993
(lp1994
F44.0648268
aF-123.006778
asV4200 W. Diversey Ave.
p1995
(lp1996
F41.9326319
aF-87.7325469
asV4632-4644 S. Cicero Ave.
p1997
(lp1998
F41.808423
aF-87.743561
asV5563-67 N. Elston Ave.
p1999
(lp2000
F41.9832899
aF-87.7626329
asV10222 S. Western 
p2001
(lp2002
F41.7075192
aF-87.6820183
asV700 W Root St
p2003
(lp2004
F41.8192102
aF-87.6436967
asV1606 S. Pulaski Rd. 
p2005
(lp2006
F41.85855530000001
aF-87.72514470000002
asV2638 W Division
p2007
(lp2008
F41.90321309999999
aF-87.6935286
asV1913 W Grand
p2009
(lp2010
F41.8906096
aF-87.6750813
asV9725 S. Western Ave.
p2011
(lp2012
F41.7165292
aF-87.6817031
asV160 N. Halsted 
p2013
(lp2014
F41.884841
aF-87.647797
asV7820 S Ashland
p2015
(lp2016
F41.7515132
aF-87.663782
asV4427 N. Clark St.
p2017
(lp2018
F41.96269059999999
aF-87.66584429999999
asV6019 W. Irving Park Rd.
p2019
(lp2020
F41.9528344
aF-87.7775522
asV3692 N. Milwaukee Ave.
p2021
(lp2022
F41.9477188
aF-87.738529
asV6111 S Sayre
p2023
(lp2024
F41.780819
aF-87.795592
asV4661 N Broadway
p2025
(lp2026
F41.9669348
aF-87.65822620000002
asV4513 W Armitage
p2027
(lp2028
F41.9167524
aF-87.73964989999999
asV3817 N. Pulaski 
p2029
(lp2030
F41.9504139
aF-87.72719269999999
asV6928 S. Pulaski Rd. 
p2031
(lp2032
F41.766945
aF-87.72293610000001
asV1017 W. Washington Blvd. Suite 3A
p2033
(lp2034
F41.882593
aF-87.652766
asV6523 S. Dr. Martin Luther King Jr. Dr. 
p2035
(lp2036
F41.7758818
aF-87.6153516
asV1017 W. Washington Blvd. Suite 3G
p2037
(lp2038
F41.882593
aF-87.652766
asV4900 S. Kilbourn Ave.
p2039
(lp2040
F41.8035506
aF-87.73678579999999
asV753 E 79th
p2041
(lp2042
F41.7511401
aF-87.6057173
asV1937 & 1941 E. 79th St.
p2043
(lp2044
F40.7704181
aF-73.9480761
asV1901 S. Kilbourn Ave.
p2045
(lp2046
F41.8546094
aF-87.7364492
asV10554 S Michigan Ave
p2047
(lp2048
F41.7020177
aF-87.6212135
asV2515 S. Wabash Ave.
p2049
(lp2050
F41.8469274
aF-87.6248707
asV4431 N. Milwaukee Ave.
p2051
(lp2052
F41.9613924
aF-87.75487559999999
asV1000 W. 35th St.
p2053
(lp2054
F41.8309047
aF-87.6512472
asV3142-48 W. Cermak Rd.
p2055
(lp2056
F41.8519727
aF-87.70456229999999
asV5052-56 W Irving Park Rd
p2057
(lp2058
F41.984316
aF-88.0777079
asV2332 N Milwaukee
p2059
(lp2060
F41.923479
aF-87.69867699999999
asV5530 N. Lincoln Ave.
p2061
(lp2062
F41.9819853
aF-87.693732
asV3757 W Lawrence
p2063
(lp2064
F41.96803610000001
aF-87.72288809999999
asV1133-35 W Granville
p2065
(lp2066
F41.9943603
aF-87.6596986
asV3541 W. North Ave.
p2067
(lp2068
F41.9097875
aF-87.7161727
asV9214 S Cottage Grove
p2069
(lp2070
F41.7270772
aF-87.6048811
asV4701 W Augusta
p2071
(lp2072
F41.8985632
aF-87.74458109999999
asV3848 W Chicago
p2073
(lp2074
F41.8956035
aF-87.72311049999999
asV6315 N Clark
p2075
(lp2076
F41.9969203
aF-87.66992429999999
asV4322 N. Western Ave.
p2077
(lp2078
F41.9602808
aF-87.68891579999999
asV4761 N. Milwaukee Ave.
p2079
(lp2080
F41.9671104
aF-87.7598727
asV4806 N Kedzie
p2081
(lp2082
F41.9687275
aF-87.7087329
asV600-8 E. 61st St.
p2083
(lp2084
F41.7841206
aF-87.61058039999999
asV3215 W Lawrence
p2085
(lp2086
F41.9681974
aF-87.7092272
asV3600 W Roosevelt
p2087
(lp2088
F34.7259486
aF-92.313312
asV3752 W Lawrence
p2089
(lp2090
F41.968569
aF-87.7228482
asV2522 W Armitage
p2091
(lp2092
F41.9175499
aF-87.69131399999999
asV3953 W Roosvelt
p2093
(lp2094
F41.865924
aF-87.72478989999999
asV1245 W Fulton Market
p2095
(lp2096
F41.8864977
aF-87.6585494
asV7411-9 S. Cottage Grove Ave.
p2097
(lp2098
F41.7599768
aF-87.6051152
asV11151-53 S Michigan Ave
p2099
(lp2100
F41.69108809999999
aF-87.62068579999999
asV4432 N Ravenswood
p2101
(lp2102
F41.9626957
aF-87.6749033
asV1421 N Elston
p2103
(lp2104
F41.9078851
aF-87.6599774
asV4806 N. Milwaukee Ave.
p2105
(lp2106
F41.96793
aF-87.76129999999999
asV1200 W Randolph
p2107
(lp2108
F41.8846274
aF-87.6572149
asV3431 N Pulaski
p2109
(lp2110
F41.943784
aF-87.7269431
asV424 N. Oakley Blvd. 
p2111
(lp2112
F41.8894119
aF-87.68456599999999
asV5843 W. Madison St.
p2113
(lp2114
F41.8797349
aF-87.771681
asV2830 N Milwaukee
p2115
(lp2116
F41.9325014
aF-87.71355199999999
asV5754 W. Chicago Ave.
p2117
(lp2118
F41.8948674
aF-87.7699883
asV1850 W. 47th St.
p2119
(lp2120
F41.8087344
aF-87.67183340000001
asV2557 W Armitage
p2121
(lp2122
F41.9175485
aF-87.6917594
asV35 S. Racine Ave. 
p2123
(lp2124
F41.880569
aF-87.656898
asV2534-8 E. 79th St.
p2125
(lp2126
F40.7764625
aF-73.9631345
asV4750 N Milwaukee
p2127
(lp2128
F41.9667142
aF-87.7601502
asV4767 N Lincoln
p2129
(lp2130
F41.9684284
aF-87.68820780000001
asV3301 - 3309 N. Central Ave.
p2131
(lp2132
F41.9408118
aF-87.76643050000001
asV1837 W Grand
p2133
(lp2134
F41.8906476
aF-87.67351699999999
asV4821 N Pulaski Rd
p2135
(lp2136
F41.9689332
aF-87.72759429999999
asV3801 N. Cicero Ave. 
p2137
(lp2138
F41.94989169999999
aF-87.7468832
asV2385 N Milwaukee Ave
p2139
(lp2140
F41.9246141
aF-87.6998113
asV4644 S Ashland
p2141
(lp2142
F41.8090866
aF-87.6653453
asV1444 W Lake 
p2143
(lp2144
F41.8856241
aF-87.66414590000001
asV635 E. 47th St.
p2145
(lp2146
F41.8092584
aF-87.6099167
asV1761 W. Berteau Ave.
p2147
(lp2148
F41.9576646
aF-87.6732073
asV2247 W Lawrence
p2149
(lp2150
F41.9685459
aF-87.6859923
asV1818 N Latrobe
p2151
(lp2152
F41.913761
aF-87.7573828
asV3932 N Lincoln
p2153
(lp2154
F41.9531708
aF-87.6783196
asV945 E 93rd
p2155
(lp2156
F40.64608390000001
aF-73.90834509999999
asV2912 N. Milwaukee Ave.
p2157
(lp2158
F41.9340119
aF-87.7159791
asV2643 N. Milwaukee Ave.
p2159
(lp2160
F41.9299461
aF-87.7084675
asV5701 W. Division St.
p2161
(lp2162
F41.9019254
aF-87.7683261
asV2831 W Lawrence
p2163
(lp2164
F41.9683531
aF-87.6999258
asV10232 S Ewing Ave
p2165
(lp2166
F41.7090491
aF-87.5355227
asV2644 W. Touhy Ave.
p2167
(lp2168
F42.0123767
aF-87.6967943
asV4452 N Western
p2169
(lp2170
F41.96287419999999
aF-87.6890451
asV340 N Ashland
p2171
(lp2172
F41.887622
aF-87.667357
asV4041 N. Milwaukee Ave. 
p2173
(lp2174
F41.9544858
aF-87.7485593
asV3726 W 16th
p2175
(lp2176
F41.8590884
aF-87.7184796
asV2385 N. Milwaukee Ave.
p2177
(lp2178
F41.9246141
aF-87.6998113
asV2616 N Cicero
p2179
(lp2180
F41.9285132
aF-87.74687259999999
asV4140 W. Victoria St. 
p2181
(lp2182
F34.1111306
aF-117.3519041
asV2033 W Fulton
p2183
(lp2184
F41.8865255
aF-87.6783275
asV5719-25 W. Chicago Ave.
p2185
(lp2186
F41.8946393
aF-87.7688847
asV5825-29 W. Irving Park Rd. 
p2187
(lp2188
F41.9851032
aF-88.08212979999999
asV4240 W. Lawrence Ave.
p2189
(lp2190
F41.9684281
aF-87.7346654
asV1229 N North Branch, Suite 123
p2191
(lp2192
F44.508988
aF-73.2476428
asV3409 W Madison
p2193
(lp2194
F41.880721
aF-87.7115812
asV2755-9 W. Harrison St. / 605-11 S. California Ave.
p2195
(lp2196
F37.8153918
aF-122.2592726
asV3313-5 W. Armitage Ave.
p2197
(lp2198
F41.9171966
aF-87.7108169
asV1208 N Wells
p2199
(lp2200
F41.9041647
aF-87.6347651
asV3279 W Armitage
p2201
(lp2202
F41.9171698
aF-87.7100213
asV2544 E. 95th St.
p2203
(lp2204
F41.7232494
aF-87.563152
asV3251-57 W Bryn Mawr
p2205
(lp2206
F41.9828789
aF-87.71095299999999
asV1123-9 W. Thorndale Ave.
p2207
(lp2208
F41.9896808
aF-87.65920190000001
asV3714-26 W 16th 
p2209
(lp2210
F41.8602286
aF-87.62825380000001
asV4020-24 N. Lincoln 
p2211
(lp2212
F40.8429093
aF-96.7537948
asV2136 S. Peoria St.
p2213
(lp2214
F41.853176
aF-87.6484617
asV3109 W Armitage
p2215
(lp2216
F41.9172132
aF-87.70570579999999
asV4900 N Lincoln
p2217
(lp2218
F41.9709834
aF-87.6902965
asV4159 N Western
p2219
(lp2220
F41.9575513
aF-87.68824920000002
asV3108-3112 N Central
p2221
(lp2222
F42.3073358
aF-89.1164714
asV4018 N Cicero
p2223
(lp2224
F41.9541275
aF-87.74765219999999
asV1218 E 53rd
p2225
(lp2226
F32.0400739
aF-81.085321
asV4645 W Chicago
p2227
(lp2228
F41.8947582
aF-87.74279159999999
asV4222-24 N Milwaukee
p2229
(lp2230
F42.9891624
aF-87.9678711
asV4014 W. Chicago Ave.
p2231
(lp2232
F41.8955681
aF-87.72680849999999
asV1516 E 53rd
p2233
(lp2234
F41.7997786
aF-87.58837199999999
asV2419 W. 14th St., Unit C
p2235
(lp2236
F41.8625885
aF-87.68692829999999
asV5414 N Broadway
p2237
(lp2238
F41.980522
aF-87.660382
asV4229 N Ravenswood
p2239
(lp2240
F41.9588051
aF-87.6739063
asV7737 S. Western Ave.
p2241
(lp2242
F41.752646
aF-87.6824603
asV5621 W Irving Park
p2243
(lp2244
F41.952955
aF-87.7679606
asV2414 S. Oakley Ave.
p2245
(lp2246
F41.8479244
aF-87.6833046
asV1033 N Kolmar
p2247
(lp2248
F41.8997534
aF-87.7398133
asV6158 S. Central Ave.
p2249
(lp2250
F41.7800716
aF-87.7620673
asV3407-9 W. Armitage Ave.
p2251
(lp2252
F41.917159
aF-87.71234869999999
asV6330 N Clark
p2253
(lp2254
F41.9973295
aF-87.6709119
asV4510 N. Ravenswood 
p2255
(lp2256
F41.9638906
aF-87.6748928
asV3958 W 55th
p2257
(lp2258
F41.7934686
aF-87.7229192
asV5142 W. Belmont Ave.
p2259
(lp2260
F41.9389192
aF-87.7559362
asV738 W Randolph
p2261
(lp2262
F40.006143
aF-84.96321499999999
asV5425-7 N. Broadway
p2263
(lp2264
F40.0737588
aF-105.2847799
asV415 N. Sangamon St.
p2265
(lp2266
F41.8895225
aF-87.65077099999999
asV3600 S. Morgan St.
p2267
(lp2268
F41.8286889
aF-87.65197289999999
asV821 N Cicero
p2269
(lp2270
F41.8957379
aF-87.74518069999999
asV1015 N. Pulaski Rd.
p2271
(lp2272
F41.8995867
aF-87.7258872
asV4500 W 31st
p2273
(lp2274
F39.7610003
aF-105.0452575
asV3118 W 111th 
p2275
(lp2276
F39.8973197
aF-105.0260589
asV5025 N. Clark St.
p2277
(lp2278
F41.9732288
aF-87.66778389999999
asV2890 N Milwaukee
p2279
(lp2280
F41.93375899999999
aF-87.7154992
asV3131-35 N Central
p2281
(lp2282
F37.5491044
aF-122.3729421
asV3645 W. Armitage Ave.
p2283
(lp2284
F41.9170872
aF-87.71843199999999
asV2142 W Carroll
p2285
(lp2286
F41.88790820000001
aF-87.6809589
asV10600 S Western
p2287
(lp2288
F41.7007665
aF-87.68185749999999
asV5756 N. Lincoln Ave.
p2289
(lp2290
F41.9859603
aF-87.7004969
asV3301 W 111th
p2291
(lp2292
F41.6913645
aF-87.7034824
asV4505 W Armitage
p2293
(lp2294
F41.9167821
aF-87.73911749999999
asV4242 S Cottage Grove
p2295
(lp2296
F41.8173427
aF-87.60700729999999
asV6050 W. Irving Park Rd. 
p2297
(lp2298
F41.953294
aF-87.778762
asV3936 N Cicero
p2299
(lp2300
F41.9526643
aF-87.7475652
asV1420 N. Lamon Ave.
p2301
(lp2302
F41.9065609
aF-87.7489255
asV3258 W Foster
p2303
(lp2304
F41.9759092
aF-87.7109911
asV10008 S Western
p2305
(lp2306
F41.7115848
aF-87.68203489999999
asV5523-25 N Broadway
p2307
(lp2308
F40.9348422
aF-73.89836079999999
asV3344 S Halsted
p2309
(lp2310
F41.83349440000001
aF-87.64642010000001
asV3750 W 63rd 
p2311
(lp2312
F41.778929
aF-87.71746
asV3031 - 3037 W. 111th St.
p2313
(lp2314
F41.6913501
aF-87.6976206
asV4701 N. Kedzie Ave. 
p2315
(lp2316
F41.9669719
aF-87.70815739999999
asV4717-23 W Chicago
p2317
(lp2318
F41.849144
aF-87.6984234
asV4725 N. Sheridan Rd. #1S
p2319
(lp2320
F41.96800349999999
aF-87.65453959999999
asV4912 N. Western Ave.
p2321
(lp2322
F41.9708608
aF-87.6893004
asV5015 N Western
p2323
(lp2324
F41.9727345
aF-87.6887457
as.